ccopy_reg
_reconstructor
p0
(cWick
ManyOpStrings
p1
c__builtin__
list
p2
(lp3
(iWick
OperatorString
p4
(dp5
S'EDITensor'
p6
NsS'UniqueBCIndices'
p7
NsS'EDTTensor'
p8
NsS'IatT2'
p9
NsS'CurrentIntegral'
p10
NsS'Deltas'
p11
(lp12
(lp13
I2
aI5
aa(lp14
I1
aI4
aa(lp15
I0
aI3
aasS'TimeReversed'
p16
I00
sS'WatchBCIndex'
p17
NsS'EDeltas'
p18
(lp19
sS'EDeltat'
p20
(lp21
sS'Ops'
p22
(lp23
(lp24
I-4
aI0
aa(lp25
I-3
aI1
aa(lp26
I-1
aI4
aa(lp27
I-2
aI3
aa(lp28
I-4
aI2
aa(lp29
I-2
aI5
aasS'EDSTensor'
p30
NsS'BCIndices'
p31
NsS'PreFactor'
p32
F-1.0
sS'OldTime'
p33
F0.0
sS'BosInf'
p34
NsS'EDeltai'
p35
(lp36
sS'IatT1'
p37
NsS'IatT0'
p38
NsS'Tensors'
p39
(lp40
(iWick
TensorIndexer
p41
(dp42
S'suffix'
p43
S'_ph'
p44
sS'ops'
p45
(lp46
(lp47
I4
aI0
aa(lp48
I3
aI1
aasS'indices'
p49
(lp50
I1
aI0
asS'vac'
p51
S'_Vac'
p52
sS'Time'
p53
S''
p54
sS'indextypes'
p55
(lp56
I1
aI2
asS'name'
p57
S'r1'
p58
sba(iWick
TensorIndexer
p59
(dp60
g43
S'_hh'
p61
sg45
(lp62
(lp63
I4
aI2
aa(lp64
I2
aI3
aasg49
(lp65
I2
aI3
asg51
g54
sg53
g54
sg55
(lp66
I4
aI2
asg57
S'h'
p67
sba(iWick
TensorIndexer
p68
(dp69
g43
g44
sg45
(lp70
(lp71
I1
aI4
aa(lp72
I2
aI5
aasg49
(lp73
I4
aI5
asg51
g54
sg53
g54
sg55
(lp74
I1
aI2
asg57
g58
sbasS'BCIndexShifts'
p75
Nsba(iWick
OperatorString
p76
(dp77
g6
Nsg7
Nsg8
Nsg9
Nsg10
Nsg11
(lp78
(lp79
I3
aI4
aa(lp80
I1
aI2
aa(lp81
I0
aI5
aasg16
I00
sg17
Nsg18
(lp82
sg20
(lp83
sg22
(lp84
(lp85
I-4
aI0
aa(lp86
I-3
aI1
aa(lp87
I-1
aI2
aa(lp88
I-3
aI3
aa(lp89
I-1
aI4
aa(lp90
I-2
aI5
aasg30
Nsg31
Nsg32
F1.0
sg33
F0.0
sg34
Nsg35
(lp91
sg37
Nsg38
Nsg39
(lp92
(iWick
TensorIndexer
p93
(dp94
g43
g44
sg45
(lp95
(lp96
I4
aI0
aa(lp97
I3
aI1
aasg49
(lp98
I1
aI0
asg51
g52
sg53
g54
sg55
(lp99
I1
aI2
asg57
g58
sba(iWick
TensorIndexer
p100
(dp101
g43
S'_pp'
p102
sg45
(lp103
(lp104
I1
aI2
aa(lp105
I3
aI3
aasg49
(lp106
I2
aI3
asg51
g54
sg53
g54
sg55
(lp107
I1
aI3
asg57
g67
sba(iWick
TensorIndexer
p108
(dp109
g43
g44
sg45
(lp110
(lp111
I1
aI4
aa(lp112
I2
aI5
aasg49
(lp113
I4
aI5
asg51
g54
sg53
g54
sg55
(lp114
I1
aI2
asg57
g58
sbasg75
Nsba(iWick
OperatorString
p115
(dp116
g6
Nsg7
Nsg8
Nsg9
Nsg10
Nsg11
(lp117
(lp118
I4
aI6
aa(lp119
I2
aI7
aa(lp120
I1
aI3
aa(lp121
I0
aI5
aasg16
I00
sg17
Nsg18
(lp122
sg20
(lp123
sg22
(lp124
(lp125
I-4
aI0
aa(lp126
I-3
aI1
aa(lp127
I-1
aI3
aa(lp128
I-2
aI5
aa(lp129
I-4
aI2
aa(lp130
I-3
aI4
aa(lp131
I-1
aI6
aa(lp132
I-2
aI7
aasg30
Nsg31
Nsg32
F-1.0
sg33
F0.0
sg34
Nsg35
(lp133
sg37
Nsg38
Nsg39
(lp134
(iWick
TensorIndexer
p135
(dp136
g43
g44
sg45
(lp137
(lp138
I4
aI0
aa(lp139
I3
aI1
aasg49
(lp140
I1
aI0
asg51
g52
sg53
g54
sg55
(lp141
I1
aI2
asg57
g58
sba(iWick
TensorIndexer
p142
(dp143
g43
S'_hphp'
p144
sg45
(lp145
(lp146
I4
aI2
aa(lp147
I1
aI3
aa(lp148
I3
aI4
aa(lp149
I2
aI5
aasg49
(lp150
I2
aI3
aI5
aI4
asg51
g54
sg53
g54
sg55
(lp151
I4
aI1
aI2
aI3
asg57
S'v'
p152
sba(iWick
TensorIndexer
p153
(dp154
g43
g44
sg45
(lp155
(lp156
I1
aI6
aa(lp157
I2
aI7
aasg49
(lp158
I6
aI7
asg51
g54
sg53
g54
sg55
(lp159
I1
aI2
asg57
g58
sbasg75
Nsbatp160
Rp161
(dp162
S'InhomogeneousTerms'
p163
I00
sb.