ccopy_reg
_reconstructor
p0
(cWick
ManyOpStrings
p1
c__builtin__
list
p2
(lp3
(iWick
OperatorString
p4
(dp5
S'EDITensor'
p6
NsS'UniqueBCIndices'
p7
NsS'EDTTensor'
p8
NsS'IatT2'
p9
NsS'CurrentIntegral'
p10
NsS'Deltas'
p11
(lp12
(lp13
I0
aI3
aa(lp14
I2
aI5
aa(lp15
I1
aI6
aa(lp16
I4
aI7
aasS'TimeReversed'
p17
I00
sS'WatchBCIndex'
p18
NsS'EDeltas'
p19
(lp20
sS'EDeltat'
p21
(lp22
sS'Ops'
p23
(lp24
(lp25
I-4
aI0
aa(lp26
I-2
aI0
aa(lp27
I-4
aI2
aa(lp28
I-2
aI2
aa(lp29
I-4
aI4
aa(lp30
I-3
aI1
aa(lp31
I-1
aI1
aa(lp32
I-2
aI4
aasS'EDSTensor'
p33
NsS'BCIndices'
p34
NsS'PreFactor'
p35
F1.0
sS'OldTime'
p36
F0.0
sS'BosInf'
p37
NsS'EDeltai'
p38
(lp39
sS'IatT1'
p40
NsS'IatT0'
p41
NsS'Tensors'
p42
(lp43
(iWick
TensorIndexer
p44
(dp45
S'suffix'
p46
S'_ph'
p47
sS'ops'
p48
(lp49
(lp50
I4
aI0
aa(lp51
I3
aI1
aasS'indices'
p52
(lp53
I1
aI0
asS'vac'
p54
S'_Vac'
p55
sS'Time'
p56
S''
p57
sS'indextypes'
p58
(lp59
I1
aI2
asS'name'
p60
S'r1'
p61
sba(iWick
TensorIndexer
p62
(dp63
g46
S'_hh'
p64
sg48
(lp65
(lp66
I4
aI2
aa(lp67
I2
aI0
aasg52
(lp68
I2
aI0
asg54
g57
sg56
S't'
p69
sg58
(lp70
I4
aI2
asg60
S'B'
p71
sba(iWick
TensorIndexer
p72
(dp73
g46
g64
sg48
(lp74
(lp75
I4
aI4
aa(lp76
I2
aI2
aasg52
(lp77
I4
aI2
asg54
g57
sg56
S's'
p78
sg58
(lp79
I4
aI2
asg60
g71
sba(iWick
TensorIndexer
p80
(dp81
g46
g47
sg48
(lp82
(lp83
I1
aI1
aa(lp84
I2
aI4
aasg52
(lp85
I1
aI4
asg54
g57
sg56
g57
sg58
(lp86
I1
aI2
asg60
g61
sbasS'BCIndexShifts'
p87
Nsba(iWick
OperatorString
p88
(dp89
g6
Nsg7
Nsg8
Nsg9
Nsg10
Nsg19
(lp90
sg87
Nsg18
Nsg11
(lp91
(lp92
I0
aI3
aa(lp93
I1
aI4
aa(lp94
I5
aI6
aa(lp95
I2
aI7
aasg21
(lp96
sg23
(lp97
(lp98
I-4
aI0
aa(lp99
I-2
aI0
aa(lp100
I-4
aI2
aa(lp101
I-3
aI1
aa(lp102
I-1
aI1
aa(lp103
I-3
aI5
aa(lp104
I-1
aI5
aa(lp105
I-2
aI2
aasg33
Nsg34
Nsg42
(lp106
(iWick
TensorIndexer
p107
(dp108
g46
g47
sg48
(lp109
(lp110
I4
aI0
aa(lp111
I3
aI1
aasg52
(lp112
I1
aI0
asg54
g55
sg56
g57
sg58
(lp113
I1
aI2
asg60
g61
sba(iWick
TensorIndexer
p114
(dp115
g46
g64
sg48
(lp116
(lp117
I4
aI2
aa(lp118
I2
aI0
aasg52
(lp119
I2
aI0
asg54
g57
sg56
g69
sg58
(lp120
I4
aI2
asg60
g71
sba(iWick
TensorIndexer
p121
(dp122
g46
S'_pp'
p123
sg48
(lp124
(lp125
I1
aI1
aa(lp126
I3
aI5
aasg52
(lp127
I1
aI5
asg54
g57
sg56
g78
sg58
(lp128
I1
aI3
asg60
g71
sba(iWick
TensorIndexer
p129
(dp130
g46
g47
sg48
(lp131
(lp132
I1
aI5
aa(lp133
I2
aI2
aasg52
(lp134
I5
aI2
asg54
g57
sg56
g57
sg58
(lp135
I1
aI2
asg60
g61
sbasg36
F0.0
sg37
Nsg38
(lp136
sg40
Nsg41
Nsg17
I00
sg35
F-1.0
sba(iWick
OperatorString
p137
(dp138
g6
Nsg7
Nsg8
Nsg9
Nsg10
Nsg11
(lp139
(lp140
I3
aI4
aa(lp141
I0
aI5
aa(lp142
I1
aI6
aa(lp143
I2
aI7
aasg17
I00
sg18
Nsg19
(lp144
sg21
(lp145
sg23
(lp146
(lp147
I-4
aI0
aa(lp148
I-2
aI0
aa(lp149
I-4
aI2
aa(lp150
I-3
aI3
aa(lp151
I-1
aI3
aa(lp152
I-3
aI1
aa(lp153
I-1
aI1
aa(lp154
I-2
aI2
aasg33
Nsg34
Nsg35
F-1.0
sg36
F0.0
sg37
Nsg38
(lp155
sg40
Nsg41
Nsg42
(lp156
(iWick
TensorIndexer
p157
(dp158
g46
g47
sg48
(lp159
(lp160
I4
aI0
aa(lp161
I3
aI1
aasg52
(lp162
I1
aI0
asg54
g55
sg56
g57
sg58
(lp163
I1
aI2
asg60
g61
sba(iWick
TensorIndexer
p164
(dp165
g46
S'_hp'
p166
sg48
(lp167
(lp168
I4
aI2
aa(lp169
I3
aI3
aasg52
(lp170
I2
aI3
asg54
g57
sg56
g69
sg58
(lp171
I4
aI3
asg60
g71
sba(iWick
TensorIndexer
p172
(dp173
g46
S'_ph'
p174
sg48
(lp175
(lp176
I1
aI3
aa(lp177
I2
aI0
aasg52
(lp178
I3
aI0
asg54
g57
sg56
g78
sg58
(lp179
I1
aI2
asg60
g71
sba(iWick
TensorIndexer
p180
(dp181
g46
g47
sg48
(lp182
(lp183
I1
aI1
aa(lp184
I2
aI2
aasg52
(lp185
I1
aI2
asg54
g57
sg56
g57
sg58
(lp186
I1
aI2
asg60
g61
sbasg87
Nsba(iWick
OperatorString
p187
(dp188
g6
Nsg7
Nsg8
Nsg9
Nsg10
Nsg11
(lp189
(lp190
I1
aI4
aa(lp191
I2
aI5
aa(lp192
I3
aI6
aa(lp193
I0
aI7
aasg17
I00
sg18
Nsg19
(lp194
sg21
(lp195
sg23
(lp196
(lp197
I-4
aI0
aa(lp198
I-4
aI2
aa(lp199
I-3
aI1
aa(lp200
I-1
aI1
aa(lp201
I-2
aI2
aa(lp202
I-3
aI3
aa(lp203
I-1
aI3
aa(lp204
I-2
aI0
aasg33
Nsg34
Nsg35
F-1.0
sg36
F0.0
sg37
Nsg38
(lp205
sg40
Nsg41
Nsg42
(lp206
(iWick
TensorIndexer
p207
(dp208
g46
g47
sg48
(lp209
(lp210
I4
aI0
aa(lp211
I3
aI1
aasg52
(lp212
I1
aI0
asg54
g55
sg56
g57
sg58
(lp213
I1
aI2
asg60
g61
sba(iWick
TensorIndexer
p214
(dp215
g46
g166
sg48
(lp216
(lp217
I4
aI2
aa(lp218
I3
aI3
aasg52
(lp219
I2
aI3
asg54
g57
sg56
g69
sg58
(lp220
I4
aI3
asg60
g71
sba(iWick
TensorIndexer
p221
(dp222
g46
g174
sg48
(lp223
(lp224
I1
aI1
aa(lp225
I2
aI2
aasg52
(lp226
I1
aI2
asg54
g57
sg56
g78
sg58
(lp227
I1
aI2
asg60
g71
sba(iWick
TensorIndexer
p228
(dp229
g46
g47
sg48
(lp230
(lp231
I1
aI3
aa(lp232
I2
aI0
aasg52
(lp233
I3
aI0
asg54
g57
sg56
g57
sg58
(lp234
I1
aI2
asg60
g61
sbasg87
Nsba(iWick
OperatorString
p235
(dp236
g6
Nsg7
Nsg8
Nsg9
Nsg10
Nsg11
(lp237
(lp238
I1
aI2
aa(lp239
I0
aI5
aa(lp240
I3
aI6
aa(lp241
I4
aI7
aasg17
I00
sg18
Nsg19
(lp242
sg21
(lp243
sg23
(lp244
(lp245
I-4
aI0
aa(lp246
I-3
aI1
aa(lp247
I-1
aI1
aa(lp248
I-2
aI0
aa(lp249
I-4
aI4
aa(lp250
I-3
aI3
aa(lp251
I-1
aI3
aa(lp252
I-2
aI4
aasg33
Nsg34
Nsg35
F-1.0
sg36
F0.0
sg37
Nsg38
(lp253
sg40
Nsg41
Nsg42
(lp254
(iWick
TensorIndexer
p255
(dp256
g46
g47
sg48
(lp257
(lp258
I4
aI0
aa(lp259
I3
aI1
aasg52
(lp260
I1
aI0
asg54
g55
sg56
g57
sg58
(lp261
I1
aI2
asg60
g61
sba(iWick
TensorIndexer
p262
(dp263
g46
g123
sg48
(lp264
(lp265
I1
aI1
aa(lp266
I3
aI3
aasg52
(lp267
I1
aI3
asg54
g57
sg56
g69
sg58
(lp268
I1
aI3
asg60
g71
sba(iWick
TensorIndexer
p269
(dp270
g46
g64
sg48
(lp271
(lp272
I4
aI4
aa(lp273
I2
aI0
aasg52
(lp274
I4
aI0
asg54
g57
sg56
g78
sg58
(lp275
I4
aI2
asg60
g71
sba(iWick
TensorIndexer
p276
(dp277
g46
g47
sg48
(lp278
(lp279
I1
aI3
aa(lp280
I2
aI4
aasg52
(lp281
I3
aI4
asg54
g57
sg56
g57
sg58
(lp282
I1
aI2
asg60
g61
sbasg87
Nsba(iWick
OperatorString
p283
(dp284
g6
Nsg7
Nsg8
Nsg9
Nsg10
Nsg19
(lp285
sg87
Nsg18
Nsg11
(lp286
(lp287
I1
aI2
aa(lp288
I3
aI4
aa(lp289
I5
aI6
aa(lp290
I0
aI7
aasg21
(lp291
sg23
(lp292
(lp293
I-4
aI0
aa(lp294
I-3
aI1
aa(lp295
I-1
aI1
aa(lp296
I-3
aI3
aa(lp297
I-1
aI3
aa(lp298
I-3
aI5
aa(lp299
I-1
aI5
aa(lp300
I-2
aI0
aasg33
Nsg34
Nsg42
(lp301
(iWick
TensorIndexer
p302
(dp303
g46
g47
sg48
(lp304
(lp305
I4
aI0
aa(lp306
I3
aI1
aasg52
(lp307
I1
aI0
asg54
g55
sg56
g57
sg58
(lp308
I1
aI2
asg60
g61
sba(iWick
TensorIndexer
p309
(dp310
g46
g123
sg48
(lp311
(lp312
I1
aI1
aa(lp313
I3
aI3
aasg52
(lp314
I1
aI3
asg54
g57
sg56
g69
sg58
(lp315
I1
aI3
asg60
g71
sba(iWick
TensorIndexer
p316
(dp317
g46
g123
sg48
(lp318
(lp319
I1
aI3
aa(lp320
I3
aI5
aasg52
(lp321
I3
aI5
asg54
g57
sg56
g78
sg58
(lp322
I1
aI3
asg60
g71
sba(iWick
TensorIndexer
p323
(dp324
g46
g47
sg48
(lp325
(lp326
I1
aI5
aa(lp327
I2
aI0
aasg52
(lp328
I5
aI0
asg54
g57
sg56
g57
sg58
(lp329
I1
aI2
asg60
g61
sbasg36
F0.0
sg37
Nsg38
(lp330
sg40
Nsg41
Nsg17
I00
sg35
F1.0
sba(iWick
OperatorString
p331
(dp332
g6
Nsg7
Nsg8
Nsg9
Nsg10
Nsg19
(lp333
sg87
Nsg18
Nsg11
(lp334
(lp335
I3
aI4
aa(lp336
I0
aI5
aa(lp337
I1
aI6
aa(lp338
I2
aI7
aasg21
(lp339
sg23
(lp340
(lp341
I-4
aI0
aa(lp342
I-2
aI0
aa(lp343
I-4
aI2
aa(lp344
I-3
aI3
aa(lp345
I-1
aI3
aa(lp346
I-3
aI1
aa(lp347
I-1
aI1
aa(lp348
I-2
aI2
aasg33
Nsg34
Nsg42
(lp349
(iWick
TensorIndexer
p350
(dp351
g46
g166
sg48
(lp352
(lp353
I4
aI0
aa(lp354
I3
aI1
aasg52
(lp355
I0
aI1
asg54
g57
sg56
g78
sg58
(lp356
I4
aI3
asg60
g71
sba(iWick
TensorIndexer
p357
(dp358
g46
g166
sg48
(lp359
(lp360
I4
aI2
aa(lp361
I3
aI3
aasg52
(lp362
I2
aI3
asg54
g57
sg56
g69
sg58
(lp363
I4
aI3
asg60
g71
sba(iWick
TensorIndexer
p364
(dp365
g46
g47
sg48
(lp366
(lp367
I1
aI3
aa(lp368
I2
aI0
aasg52
(lp369
I3
aI0
asg54
g57
sg56
g57
sg58
(lp370
I1
aI2
asg60
g61
sba(iWick
TensorIndexer
p371
(dp372
g46
S'_hp'
p373
sg48
(lp374
(lp375
I1
aI1
aa(lp376
I2
aI2
aasg52
(lp377
I2
aI1
asg54
g55
sg56
g57
sg58
(lp378
I4
aI3
asg60
g61
sbasg36
F0.0
sg37
Nsg38
(lp379
sg40
Nsg41
Nsg17
I00
sg35
F-1.0
sba(iWick
OperatorString
p380
(dp381
g6
Nsg7
Nsg8
Nsg9
Nsg10
Nsg19
(lp382
sg87
Nsg18
Nsg11
(lp383
(lp384
I1
aI4
aa(lp385
I2
aI5
aa(lp386
I3
aI6
aa(lp387
I0
aI7
aasg21
(lp388
sg23
(lp389
(lp390
I-4
aI0
aa(lp391
I-4
aI2
aa(lp392
I-3
aI1
aa(lp393
I-1
aI1
aa(lp394
I-2
aI2
aa(lp395
I-3
aI3
aa(lp396
I-1
aI3
aa(lp397
I-2
aI0
aasg33
Nsg34
Nsg42
(lp398
(iWick
TensorIndexer
p399
(dp400
g46
g166
sg48
(lp401
(lp402
I4
aI0
aa(lp403
I3
aI1
aasg52
(lp404
I0
aI1
asg54
g57
sg56
g78
sg58
(lp405
I4
aI3
asg60
g71
sba(iWick
TensorIndexer
p406
(dp407
g46
g166
sg48
(lp408
(lp409
I4
aI2
aa(lp410
I3
aI3
aasg52
(lp411
I2
aI3
asg54
g57
sg56
g69
sg58
(lp412
I4
aI3
asg60
g71
sba(iWick
TensorIndexer
p413
(dp414
g46
g47
sg48
(lp415
(lp416
I1
aI1
aa(lp417
I2
aI2
aasg52
(lp418
I1
aI2
asg54
g57
sg56
g57
sg58
(lp419
I1
aI2
asg60
g61
sba(iWick
TensorIndexer
p420
(dp421
g46
g373
sg48
(lp422
(lp423
I1
aI3
aa(lp424
I2
aI0
aasg52
(lp425
I0
aI3
asg54
g55
sg56
g57
sg58
(lp426
I4
aI3
asg60
g61
sbasg36
F0.0
sg37
Nsg38
(lp427
sg40
Nsg41
Nsg17
I00
sg35
F-1.0
sba(iWick
OperatorString
p428
(dp429
g6
Nsg7
Nsg8
Nsg9
Nsg10
Nsg11
(lp430
(lp431
I3
aI4
aa(lp432
I0
aI5
aa(lp433
I1
aI6
aa(lp434
I2
aI7
aasg17
I00
sg18
Nsg19
(lp435
sg21
(lp436
sg23
(lp437
(lp438
I-4
aI0
aa(lp439
I-2
aI0
aa(lp440
I-4
aI2
aa(lp441
I-3
aI3
aa(lp442
I-1
aI3
aa(lp443
I-3
aI1
aa(lp444
I-1
aI1
aa(lp445
I-2
aI2
aasg33
Nsg34
Nsg35
F1.0
sg36
F0.0
sg37
Nsg38
(lp446
sg40
Nsg41
Nsg42
(lp447
(iWick
TensorIndexer
p448
(dp449
g46
g47
sg48
(lp450
(lp451
I4
aI0
aa(lp452
I3
aI1
aasg52
(lp453
I1
aI0
asg54
g55
sg56
g57
sg58
(lp454
I1
aI2
asg60
g61
sba(iWick
TensorIndexer
p455
(dp456
g46
g166
sg48
(lp457
(lp458
I4
aI2
aa(lp459
I3
aI3
aasg52
(lp460
I2
aI3
asg54
g57
sg56
g69
sg58
(lp461
I4
aI3
asg60
g71
sba(iWick
TensorIndexer
p462
(dp463
g46
g47
sg48
(lp464
(lp465
I1
aI3
aa(lp466
I2
aI0
aasg52
(lp467
I3
aI0
asg54
g57
sg56
g57
sg58
(lp468
I1
aI2
asg60
g61
sba(iWick
TensorIndexer
p469
(dp470
g46
g174
sg48
(lp471
(lp472
I1
aI1
aa(lp473
I2
aI2
aasg52
(lp474
I1
aI2
asg54
g57
sg56
g78
sg58
(lp475
I1
aI2
asg60
g71
sbasg87
Nsba(iWick
OperatorString
p476
(dp477
g6
Nsg7
Nsg8
Nsg9
Nsg10
Nsg11
(lp478
(lp479
I1
aI4
aa(lp480
I2
aI5
aa(lp481
I3
aI6
aa(lp482
I0
aI7
aasg17
I00
sg18
Nsg19
(lp483
sg21
(lp484
sg23
(lp485
(lp486
I-4
aI0
aa(lp487
I-4
aI2
aa(lp488
I-3
aI1
aa(lp489
I-1
aI1
aa(lp490
I-2
aI2
aa(lp491
I-3
aI3
aa(lp492
I-1
aI3
aa(lp493
I-2
aI0
aasg33
Nsg34
Nsg35
F1.0
sg36
F0.0
sg37
Nsg38
(lp494
sg40
Nsg41
Nsg42
(lp495
(iWick
TensorIndexer
p496
(dp497
g46
g47
sg48
(lp498
(lp499
I4
aI0
aa(lp500
I3
aI1
aasg52
(lp501
I1
aI0
asg54
g55
sg56
g57
sg58
(lp502
I1
aI2
asg60
g61
sba(iWick
TensorIndexer
p503
(dp504
g46
g166
sg48
(lp505
(lp506
I4
aI2
aa(lp507
I3
aI3
aasg52
(lp508
I2
aI3
asg54
g57
sg56
g69
sg58
(lp509
I4
aI3
asg60
g71
sba(iWick
TensorIndexer
p510
(dp511
g46
g47
sg48
(lp512
(lp513
I1
aI1
aa(lp514
I2
aI2
aasg52
(lp515
I1
aI2
asg54
g57
sg56
g57
sg58
(lp516
I1
aI2
asg60
g61
sba(iWick
TensorIndexer
p517
(dp518
g46
g174
sg48
(lp519
(lp520
I1
aI3
aa(lp521
I2
aI0
aasg52
(lp522
I3
aI0
asg54
g57
sg56
g78
sg58
(lp523
I1
aI2
asg60
g71
sbasg87
Nsba(iWick
OperatorString
p524
(dp525
g6
Nsg7
Nsg8
Nsg9
Nsg10
Nsg11
(lp526
(lp527
I3
aI4
aa(lp528
I0
aI5
aa(lp529
I1
aI6
aa(lp530
I2
aI7
aasg17
I00
sg18
Nsg19
(lp531
sg21
(lp532
sg23
(lp533
(lp534
I-4
aI0
aa(lp535
I-2
aI0
aa(lp536
I-4
aI2
aa(lp537
I-3
aI3
aa(lp538
I-1
aI3
aa(lp539
I-3
aI1
aa(lp540
I-1
aI1
aa(lp541
I-2
aI2
aasg33
Nsg34
Nsg35
F1.0
sg36
F0.0
sg37
Nsg38
(lp542
sg40
Nsg41
Nsg42
(lp543
(iWick
TensorIndexer
p544
(dp545
g46
g166
sg48
(lp546
(lp547
I4
aI0
aa(lp548
I3
aI1
aasg52
(lp549
I0
aI1
asg54
g57
sg56
g69
sg58
(lp550
I4
aI3
asg60
g71
sba(iWick
TensorIndexer
p551
(dp552
g46
g373
sg48
(lp553
(lp554
I4
aI2
aa(lp555
I3
aI3
aasg52
(lp556
I2
aI3
asg54
g57
sg56
g57
sg58
(lp557
I4
aI3
asg60
g61
sba(iWick
TensorIndexer
p558
(dp559
g46
g174
sg48
(lp560
(lp561
I1
aI3
aa(lp562
I2
aI0
aasg52
(lp563
I3
aI0
asg54
g57
sg56
g78
sg58
(lp564
I1
aI2
asg60
g71
sba(iWick
TensorIndexer
p565
(dp566
g46
g373
sg48
(lp567
(lp568
I1
aI1
aa(lp569
I2
aI2
aasg52
(lp570
I2
aI1
asg54
g55
sg56
g57
sg58
(lp571
I4
aI3
asg60
g61
sbasg87
Nsba(iWick
OperatorString
p572
(dp573
g6
Nsg7
Nsg8
Nsg9
Nsg10
Nsg11
(lp574
(lp575
I1
aI4
aa(lp576
I2
aI5
aa(lp577
I3
aI6
aa(lp578
I0
aI7
aasg17
I00
sg18
Nsg19
(lp579
sg21
(lp580
sg23
(lp581
(lp582
I-4
aI0
aa(lp583
I-4
aI2
aa(lp584
I-3
aI1
aa(lp585
I-1
aI1
aa(lp586
I-2
aI2
aa(lp587
I-3
aI3
aa(lp588
I-1
aI3
aa(lp589
I-2
aI0
aasg33
Nsg34
Nsg35
F1.0
sg36
F0.0
sg37
Nsg38
(lp590
sg40
Nsg41
Nsg42
(lp591
(iWick
TensorIndexer
p592
(dp593
g46
g166
sg48
(lp594
(lp595
I4
aI0
aa(lp596
I3
aI1
aasg52
(lp597
I0
aI1
asg54
g57
sg56
g69
sg58
(lp598
I4
aI3
asg60
g71
sba(iWick
TensorIndexer
p599
(dp600
g46
g373
sg48
(lp601
(lp602
I4
aI2
aa(lp603
I3
aI3
aasg52
(lp604
I2
aI3
asg54
g57
sg56
g57
sg58
(lp605
I4
aI3
asg60
g61
sba(iWick
TensorIndexer
p606
(dp607
g46
g174
sg48
(lp608
(lp609
I1
aI1
aa(lp610
I2
aI2
aasg52
(lp611
I1
aI2
asg54
g57
sg56
g78
sg58
(lp612
I1
aI2
asg60
g71
sba(iWick
TensorIndexer
p613
(dp614
g46
g373
sg48
(lp615
(lp616
I1
aI3
aa(lp617
I2
aI0
aasg52
(lp618
I0
aI3
asg54
g55
sg56
g57
sg58
(lp619
I4
aI3
asg60
g61
sbasg87
Nsba(iWick
OperatorString
p620
(dp621
g6
Nsg7
Nsg8
Nsg9
Nsg10
Nsg19
(lp622
sg87
Nsg18
Nsg11
(lp623
(lp624
I3
aI4
aa(lp625
I0
aI5
aa(lp626
I1
aI6
aa(lp627
I2
aI7
aasg21
(lp628
sg23
(lp629
(lp630
I-4
aI0
aa(lp631
I-2
aI0
aa(lp632
I-4
aI2
aa(lp633
I-3
aI3
aa(lp634
I-1
aI3
aa(lp635
I-3
aI1
aa(lp636
I-1
aI1
aa(lp637
I-2
aI2
aasg33
Nsg34
Nsg42
(lp638
(iWick
TensorIndexer
p639
(dp640
g46
g47
sg48
(lp641
(lp642
I4
aI0
aa(lp643
I3
aI1
aasg52
(lp644
I1
aI0
asg54
g55
sg56
g57
sg58
(lp645
I1
aI2
asg60
g61
sba(iWick
TensorIndexer
p646
(dp647
g46
g166
sg48
(lp648
(lp649
I4
aI2
aa(lp650
I3
aI3
aasg52
(lp651
I2
aI3
asg54
g57
sg56
g69
sg58
(lp652
I4
aI3
asg60
g71
sba(iWick
TensorIndexer
p653
(dp654
g46
g47
sg48
(lp655
(lp656
I1
aI3
aa(lp657
I2
aI0
aasg52
(lp658
I3
aI0
asg54
g57
sg56
g57
sg58
(lp659
I1
aI2
asg60
g61
sba(iWick
TensorIndexer
p660
(dp661
g46
g174
sg48
(lp662
(lp663
I1
aI1
aa(lp664
I2
aI2
aasg52
(lp665
I1
aI2
asg54
g57
sg56
g78
sg58
(lp666
I1
aI2
asg60
g71
sbasg36
F0.0
sg37
Nsg38
(lp667
sg40
Nsg41
Nsg17
I00
sg35
F1.0
sba(iWick
OperatorString
p668
(dp669
g6
Nsg7
Nsg8
Nsg9
Nsg10
Nsg19
(lp670
sg87
Nsg18
Nsg11
(lp671
(lp672
I1
aI4
aa(lp673
I2
aI5
aa(lp674
I3
aI6
aa(lp675
I0
aI7
aasg21
(lp676
sg23
(lp677
(lp678
I-4
aI0
aa(lp679
I-4
aI2
aa(lp680
I-3
aI1
aa(lp681
I-1
aI1
aa(lp682
I-2
aI2
aa(lp683
I-3
aI3
aa(lp684
I-1
aI3
aa(lp685
I-2
aI0
aasg33
Nsg34
Nsg42
(lp686
(iWick
TensorIndexer
p687
(dp688
g46
g47
sg48
(lp689
(lp690
I4
aI0
aa(lp691
I3
aI1
aasg52
(lp692
I1
aI0
asg54
g55
sg56
g57
sg58
(lp693
I1
aI2
asg60
g61
sba(iWick
TensorIndexer
p694
(dp695
g46
g166
sg48
(lp696
(lp697
I4
aI2
aa(lp698
I3
aI3
aasg52
(lp699
I2
aI3
asg54
g57
sg56
g69
sg58
(lp700
I4
aI3
asg60
g71
sba(iWick
TensorIndexer
p701
(dp702
g46
g47
sg48
(lp703
(lp704
I1
aI1
aa(lp705
I2
aI2
aasg52
(lp706
I1
aI2
asg54
g57
sg56
g57
sg58
(lp707
I1
aI2
asg60
g61
sba(iWick
TensorIndexer
p708
(dp709
g46
g174
sg48
(lp710
(lp711
I1
aI3
aa(lp712
I2
aI0
aasg52
(lp713
I3
aI0
asg54
g57
sg56
g78
sg58
(lp714
I1
aI2
asg60
g71
sbasg36
F0.0
sg37
Nsg38
(lp715
sg40
Nsg41
Nsg17
I00
sg35
F1.0
sba(iWick
OperatorString
p716
(dp717
g6
Nsg7
Nsg8
Nsg9
Nsg10
Nsg19
(lp718
sg87
Nsg18
Nsg11
(lp719
(lp720
I3
aI4
aa(lp721
I0
aI5
aa(lp722
I1
aI6
aa(lp723
I2
aI7
aasg21
(lp724
sg23
(lp725
(lp726
I-4
aI0
aa(lp727
I-2
aI0
aa(lp728
I-4
aI2
aa(lp729
I-3
aI3
aa(lp730
I-1
aI3
aa(lp731
I-3
aI1
aa(lp732
I-1
aI1
aa(lp733
I-2
aI2
aasg33
Nsg34
Nsg42
(lp734
(iWick
TensorIndexer
p735
(dp736
g46
g166
sg48
(lp737
(lp738
I4
aI0
aa(lp739
I3
aI1
aasg52
(lp740
I0
aI1
asg54
g57
sg56
g69
sg58
(lp741
I4
aI3
asg60
g71
sba(iWick
TensorIndexer
p742
(dp743
g46
g373
sg48
(lp744
(lp745
I4
aI2
aa(lp746
I3
aI3
aasg52
(lp747
I2
aI3
asg54
g57
sg56
g57
sg58
(lp748
I4
aI3
asg60
g61
sba(iWick
TensorIndexer
p749
(dp750
g46
g174
sg48
(lp751
(lp752
I1
aI3
aa(lp753
I2
aI0
aasg52
(lp754
I3
aI0
asg54
g57
sg56
g78
sg58
(lp755
I1
aI2
asg60
g71
sba(iWick
TensorIndexer
p756
(dp757
g46
g373
sg48
(lp758
(lp759
I1
aI1
aa(lp760
I2
aI2
aasg52
(lp761
I2
aI1
asg54
g55
sg56
g57
sg58
(lp762
I4
aI3
asg60
g61
sbasg36
F0.0
sg37
Nsg38
(lp763
sg40
Nsg41
Nsg17
I00
sg35
F1.0
sba(iWick
OperatorString
p764
(dp765
g6
Nsg7
Nsg8
Nsg9
Nsg10
Nsg19
(lp766
sg87
Nsg18
Nsg11
(lp767
(lp768
I1
aI4
aa(lp769
I2
aI5
aa(lp770
I3
aI6
aa(lp771
I0
aI7
aasg21
(lp772
sg23
(lp773
(lp774
I-4
aI0
aa(lp775
I-4
aI2
aa(lp776
I-3
aI1
aa(lp777
I-1
aI1
aa(lp778
I-2
aI2
aa(lp779
I-3
aI3
aa(lp780
I-1
aI3
aa(lp781
I-2
aI0
aasg33
Nsg34
Nsg42
(lp782
(iWick
TensorIndexer
p783
(dp784
g46
g166
sg48
(lp785
(lp786
I4
aI0
aa(lp787
I3
aI1
aasg52
(lp788
I0
aI1
asg54
g57
sg56
g69
sg58
(lp789
I4
aI3
asg60
g71
sba(iWick
TensorIndexer
p790
(dp791
g46
g373
sg48
(lp792
(lp793
I4
aI2
aa(lp794
I3
aI3
aasg52
(lp795
I2
aI3
asg54
g57
sg56
g57
sg58
(lp796
I4
aI3
asg60
g61
sba(iWick
TensorIndexer
p797
(dp798
g46
g174
sg48
(lp799
(lp800
I1
aI1
aa(lp801
I2
aI2
aasg52
(lp802
I1
aI2
asg54
g57
sg56
g78
sg58
(lp803
I1
aI2
asg60
g71
sba(iWick
TensorIndexer
p804
(dp805
g46
g373
sg48
(lp806
(lp807
I1
aI3
aa(lp808
I2
aI0
aasg52
(lp809
I0
aI3
asg54
g55
sg56
g57
sg58
(lp810
I4
aI3
asg60
g61
sbasg36
F0.0
sg37
Nsg38
(lp811
sg40
Nsg41
Nsg17
I00
sg35
F1.0
sba(iWick
OperatorString
p812
(dp813
g6
Nsg7
Nsg8
Nsg9
Nsg10
Nsg19
(lp814
sg87
Nsg18
Nsg11
(lp815
(lp816
I3
aI4
aa(lp817
I0
aI5
aa(lp818
I1
aI6
aa(lp819
I2
aI7
aasg21
(lp820
sg23
(lp821
(lp822
I-4
aI0
aa(lp823
I-2
aI0
aa(lp824
I-4
aI2
aa(lp825
I-3
aI3
aa(lp826
I-1
aI3
aa(lp827
I-3
aI1
aa(lp828
I-1
aI1
aa(lp829
I-2
aI2
aasg33
Nsg34
Nsg42
(lp830
(iWick
TensorIndexer
p831
(dp832
g46
g47
sg48
(lp833
(lp834
I4
aI0
aa(lp835
I3
aI1
aasg52
(lp836
I1
aI0
asg54
g55
sg56
g57
sg58
(lp837
I1
aI2
asg60
g61
sba(iWick
TensorIndexer
p838
(dp839
g46
g373
sg48
(lp840
(lp841
I4
aI2
aa(lp842
I3
aI3
aasg52
(lp843
I2
aI3
asg54
g57
sg56
g57
sg58
(lp844
I4
aI3
asg60
g61
sba(iWick
TensorIndexer
p845
(dp846
g46
g174
sg48
(lp847
(lp848
I1
aI3
aa(lp849
I2
aI0
aasg52
(lp850
I3
aI0
asg54
g57
sg56
g78
sg58
(lp851
I1
aI2
asg60
g71
sba(iWick
TensorIndexer
p852
(dp853
g46
g174
sg48
(lp854
(lp855
I1
aI1
aa(lp856
I2
aI2
aasg52
(lp857
I1
aI2
asg54
g57
sg56
g69
sg58
(lp858
I1
aI2
asg60
g71
sbasg36
F0.0
sg37
Nsg38
(lp859
sg40
Nsg41
Nsg17
I00
sg35
F-1.0
sba(iWick
OperatorString
p860
(dp861
g6
Nsg7
Nsg8
Nsg9
Nsg10
Nsg19
(lp862
sg87
Nsg18
Nsg11
(lp863
(lp864
I1
aI4
aa(lp865
I2
aI5
aa(lp866
I3
aI6
aa(lp867
I0
aI7
aasg21
(lp868
sg23
(lp869
(lp870
I-4
aI0
aa(lp871
I-4
aI2
aa(lp872
I-3
aI1
aa(lp873
I-1
aI1
aa(lp874
I-2
aI2
aa(lp875
I-3
aI3
aa(lp876
I-1
aI3
aa(lp877
I-2
aI0
aasg33
Nsg34
Nsg42
(lp878
(iWick
TensorIndexer
p879
(dp880
g46
g47
sg48
(lp881
(lp882
I4
aI0
aa(lp883
I3
aI1
aasg52
(lp884
I1
aI0
asg54
g55
sg56
g57
sg58
(lp885
I1
aI2
asg60
g61
sba(iWick
TensorIndexer
p886
(dp887
g46
g373
sg48
(lp888
(lp889
I4
aI2
aa(lp890
I3
aI3
aasg52
(lp891
I2
aI3
asg54
g57
sg56
g57
sg58
(lp892
I4
aI3
asg60
g61
sba(iWick
TensorIndexer
p893
(dp894
g46
g174
sg48
(lp895
(lp896
I1
aI1
aa(lp897
I2
aI2
aasg52
(lp898
I1
aI2
asg54
g57
sg56
g78
sg58
(lp899
I1
aI2
asg60
g71
sba(iWick
TensorIndexer
p900
(dp901
g46
g174
sg48
(lp902
(lp903
I1
aI3
aa(lp904
I2
aI0
aasg52
(lp905
I3
aI0
asg54
g57
sg56
g69
sg58
(lp906
I1
aI2
asg60
g71
sbasg36
F0.0
sg37
Nsg38
(lp907
sg40
Nsg41
Nsg17
I00
sg35
F-1.0
sba(iWick
OperatorString
p908
(dp909
g6
Nsg7
Nsg8
Nsg9
Nsg10
Nsg19
(lp910
sg87
Nsg18
Nsg11
(lp911
(lp912
I0
aI3
aa(lp913
I2
aI5
aa(lp914
I1
aI6
aa(lp915
I4
aI7
aasg21
(lp916
sg23
(lp917
(lp918
I-4
aI0
aa(lp919
I-2
aI0
aa(lp920
I-4
aI2
aa(lp921
I-2
aI2
aa(lp922
I-4
aI4
aa(lp923
I-3
aI1
aa(lp924
I-1
aI1
aa(lp925
I-2
aI4
aasg33
Nsg34
Nsg42
(lp926
(iWick
TensorIndexer
p927
(dp928
g46
g373
sg48
(lp929
(lp930
I4
aI0
aa(lp931
I3
aI1
aasg52
(lp932
I0
aI1
asg54
g57
sg56
g57
sg58
(lp933
I4
aI3
asg60
g61
sba(iWick
TensorIndexer
p934
(dp935
g46
g64
sg48
(lp936
(lp937
I4
aI2
aa(lp938
I2
aI0
aasg52
(lp939
I2
aI0
asg54
g57
sg56
g78
sg58
(lp940
I4
aI2
asg60
g71
sba(iWick
TensorIndexer
p941
(dp942
g46
g64
sg48
(lp943
(lp944
I4
aI4
aa(lp945
I2
aI2
aasg52
(lp946
I4
aI2
asg54
g57
sg56
g69
sg58
(lp947
I4
aI2
asg60
g71
sba(iWick
TensorIndexer
p948
(dp949
g46
g373
sg48
(lp950
(lp951
I1
aI1
aa(lp952
I2
aI4
aasg52
(lp953
I4
aI1
asg54
g55
sg56
g57
sg58
(lp954
I4
aI3
asg60
g61
sbasg36
F0.0
sg37
Nsg38
(lp955
sg40
Nsg41
Nsg17
I00
sg35
F1.0
sba(iWick
OperatorString
p956
(dp957
g6
Nsg7
Nsg8
Nsg9
Nsg10
Nsg11
(lp958
(lp959
I0
aI3
aa(lp960
I1
aI4
aa(lp961
I5
aI6
aa(lp962
I2
aI7
aasg17
I00
sg18
Nsg19
(lp963
sg21
(lp964
sg23
(lp965
(lp966
I-4
aI0
aa(lp967
I-2
aI0
aa(lp968
I-4
aI2
aa(lp969
I-3
aI1
aa(lp970
I-1
aI1
aa(lp971
I-3
aI5
aa(lp972
I-1
aI5
aa(lp973
I-2
aI2
aasg33
Nsg34
Nsg35
F-1.0
sg36
F0.0
sg37
Nsg38
(lp974
sg40
Nsg41
Nsg42
(lp975
(iWick
TensorIndexer
p976
(dp977
g46
g373
sg48
(lp978
(lp979
I4
aI0
aa(lp980
I3
aI1
aasg52
(lp981
I0
aI1
asg54
g57
sg56
g57
sg58
(lp982
I4
aI3
asg60
g61
sba(iWick
TensorIndexer
p983
(dp984
g46
g64
sg48
(lp985
(lp986
I4
aI2
aa(lp987
I2
aI0
aasg52
(lp988
I2
aI0
asg54
g57
sg56
g78
sg58
(lp989
I4
aI2
asg60
g71
sba(iWick
TensorIndexer
p990
(dp991
g46
g123
sg48
(lp992
(lp993
I1
aI1
aa(lp994
I3
aI5
aasg52
(lp995
I1
aI5
asg54
g57
sg56
g69
sg58
(lp996
I1
aI3
asg60
g71
sba(iWick
TensorIndexer
p997
(dp998
g46
g373
sg48
(lp999
(lp1000
I1
aI5
aa(lp1001
I2
aI2
aasg52
(lp1002
I2
aI5
asg54
g55
sg56
g57
sg58
(lp1003
I4
aI3
asg60
g61
sbasg87
Nsba(iWick
OperatorString
p1004
(dp1005
g6
Nsg7
Nsg8
Nsg9
Nsg10
Nsg19
(lp1006
sg87
Nsg18
Nsg11
(lp1007
(lp1008
I3
aI4
aa(lp1009
I0
aI5
aa(lp1010
I1
aI6
aa(lp1011
I2
aI7
aasg21
(lp1012
sg23
(lp1013
(lp1014
I-4
aI0
aa(lp1015
I-2
aI0
aa(lp1016
I-4
aI2
aa(lp1017
I-3
aI3
aa(lp1018
I-1
aI3
aa(lp1019
I-3
aI1
aa(lp1020
I-1
aI1
aa(lp1021
I-2
aI2
aasg33
Nsg34
Nsg42
(lp1022
(iWick
TensorIndexer
p1023
(dp1024
g46
g373
sg48
(lp1025
(lp1026
I4
aI0
aa(lp1027
I3
aI1
aasg52
(lp1028
I0
aI1
asg54
g57
sg56
g57
sg58
(lp1029
I4
aI3
asg60
g61
sba(iWick
TensorIndexer
p1030
(dp1031
g46
g166
sg48
(lp1032
(lp1033
I4
aI2
aa(lp1034
I3
aI3
aasg52
(lp1035
I2
aI3
asg54
g57
sg56
g78
sg58
(lp1036
I4
aI3
asg60
g71
sba(iWick
TensorIndexer
p1037
(dp1038
g46
g174
sg48
(lp1039
(lp1040
I1
aI3
aa(lp1041
I2
aI0
aasg52
(lp1042
I3
aI0
asg54
g57
sg56
g69
sg58
(lp1043
I1
aI2
asg60
g71
sba(iWick
TensorIndexer
p1044
(dp1045
g46
g373
sg48
(lp1046
(lp1047
I1
aI1
aa(lp1048
I2
aI2
aasg52
(lp1049
I2
aI1
asg54
g55
sg56
g57
sg58
(lp1050
I4
aI3
asg60
g61
sbasg36
F0.0
sg37
Nsg38
(lp1051
sg40
Nsg41
Nsg17
I00
sg35
F-1.0
sba(iWick
OperatorString
p1052
(dp1053
g6
Nsg7
Nsg8
Nsg9
Nsg10
Nsg19
(lp1054
sg87
Nsg18
Nsg11
(lp1055
(lp1056
I1
aI4
aa(lp1057
I2
aI5
aa(lp1058
I3
aI6
aa(lp1059
I0
aI7
aasg21
(lp1060
sg23
(lp1061
(lp1062
I-4
aI0
aa(lp1063
I-4
aI2
aa(lp1064
I-3
aI1
aa(lp1065
I-1
aI1
aa(lp1066
I-2
aI2
aa(lp1067
I-3
aI3
aa(lp1068
I-1
aI3
aa(lp1069
I-2
aI0
aasg33
Nsg34
Nsg42
(lp1070
(iWick
TensorIndexer
p1071
(dp1072
g46
g373
sg48
(lp1073
(lp1074
I4
aI0
aa(lp1075
I3
aI1
aasg52
(lp1076
I0
aI1
asg54
g57
sg56
g57
sg58
(lp1077
I4
aI3
asg60
g61
sba(iWick
TensorIndexer
p1078
(dp1079
g46
g166
sg48
(lp1080
(lp1081
I4
aI2
aa(lp1082
I3
aI3
aasg52
(lp1083
I2
aI3
asg54
g57
sg56
g78
sg58
(lp1084
I4
aI3
asg60
g71
sba(iWick
TensorIndexer
p1085
(dp1086
g46
g174
sg48
(lp1087
(lp1088
I1
aI1
aa(lp1089
I2
aI2
aasg52
(lp1090
I1
aI2
asg54
g57
sg56
g69
sg58
(lp1091
I1
aI2
asg60
g71
sba(iWick
TensorIndexer
p1092
(dp1093
g46
g373
sg48
(lp1094
(lp1095
I1
aI3
aa(lp1096
I2
aI0
aasg52
(lp1097
I0
aI3
asg54
g55
sg56
g57
sg58
(lp1098
I4
aI3
asg60
g61
sbasg36
F0.0
sg37
Nsg38
(lp1099
sg40
Nsg41
Nsg17
I00
sg35
F-1.0
sba(iWick
OperatorString
p1100
(dp1101
g6
Nsg7
Nsg8
Nsg9
Nsg10
Nsg19
(lp1102
sg87
Nsg18
Nsg11
(lp1103
(lp1104
I1
aI2
aa(lp1105
I0
aI5
aa(lp1106
I3
aI6
aa(lp1107
I4
aI7
aasg21
(lp1108
sg23
(lp1109
(lp1110
I-4
aI0
aa(lp1111
I-3
aI1
aa(lp1112
I-1
aI1
aa(lp1113
I-2
aI0
aa(lp1114
I-4
aI4
aa(lp1115
I-3
aI3
aa(lp1116
I-1
aI3
aa(lp1117
I-2
aI4
aasg33
Nsg34
Nsg42
(lp1118
(iWick
TensorIndexer
p1119
(dp1120
g46
g373
sg48
(lp1121
(lp1122
I4
aI0
aa(lp1123
I3
aI1
aasg52
(lp1124
I0
aI1
asg54
g57
sg56
g57
sg58
(lp1125
I4
aI3
asg60
g61
sba(iWick
TensorIndexer
p1126
(dp1127
g46
g123
sg48
(lp1128
(lp1129
I1
aI1
aa(lp1130
I3
aI3
aasg52
(lp1131
I1
aI3
asg54
g57
sg56
g78
sg58
(lp1132
I1
aI3
asg60
g71
sba(iWick
TensorIndexer
p1133
(dp1134
g46
g64
sg48
(lp1135
(lp1136
I4
aI4
aa(lp1137
I2
aI0
aasg52
(lp1138
I4
aI0
asg54
g57
sg56
g69
sg58
(lp1139
I4
aI2
asg60
g71
sba(iWick
TensorIndexer
p1140
(dp1141
g46
g373
sg48
(lp1142
(lp1143
I1
aI3
aa(lp1144
I2
aI4
aasg52
(lp1145
I4
aI3
asg54
g55
sg56
g57
sg58
(lp1146
I4
aI3
asg60
g61
sbasg36
F0.0
sg37
Nsg38
(lp1147
sg40
Nsg41
Nsg17
I00
sg35
F-1.0
sba(iWick
OperatorString
p1148
(dp1149
g6
Nsg7
Nsg8
Nsg9
Nsg10
Nsg11
(lp1150
(lp1151
I1
aI2
aa(lp1152
I3
aI4
aa(lp1153
I5
aI6
aa(lp1154
I0
aI7
aasg17
I00
sg18
Nsg19
(lp1155
sg21
(lp1156
sg23
(lp1157
(lp1158
I-4
aI0
aa(lp1159
I-3
aI1
aa(lp1160
I-1
aI1
aa(lp1161
I-3
aI3
aa(lp1162
I-1
aI3
aa(lp1163
I-3
aI5
aa(lp1164
I-1
aI5
aa(lp1165
I-2
aI0
aasg33
Nsg34
Nsg35
F1.0
sg36
F0.0
sg37
Nsg38
(lp1166
sg40
Nsg41
Nsg42
(lp1167
(iWick
TensorIndexer
p1168
(dp1169
g46
g373
sg48
(lp1170
(lp1171
I4
aI0
aa(lp1172
I3
aI1
aasg52
(lp1173
I0
aI1
asg54
g57
sg56
g57
sg58
(lp1174
I4
aI3
asg60
g61
sba(iWick
TensorIndexer
p1175
(dp1176
g46
g123
sg48
(lp1177
(lp1178
I1
aI1
aa(lp1179
I3
aI3
aasg52
(lp1180
I1
aI3
asg54
g57
sg56
g78
sg58
(lp1181
I1
aI3
asg60
g71
sba(iWick
TensorIndexer
p1182
(dp1183
g46
g123
sg48
(lp1184
(lp1185
I1
aI3
aa(lp1186
I3
aI5
aasg52
(lp1187
I3
aI5
asg54
g57
sg56
g69
sg58
(lp1188
I1
aI3
asg60
g71
sba(iWick
TensorIndexer
p1189
(dp1190
g46
g373
sg48
(lp1191
(lp1192
I1
aI5
aa(lp1193
I2
aI0
aasg52
(lp1194
I0
aI5
asg54
g55
sg56
g57
sg58
(lp1195
I4
aI3
asg60
g61
sbasg87
Nsbatp1196
Rp1197
(dp1198
S'InhomogeneousTerms'
p1199
I00
sb.