ccopy_reg
_reconstructor
p0
(cWick
ManyOpStrings
p1
c__builtin__
list
p2
(lp3
(iWick
OperatorString
p4
(dp5
S'EDITensor'
p6
NsS'UniqueBCIndices'
p7
NsS'EDTTensor'
p8
NsS'IatT2'
p9
NsS'CurrentIntegral'
p10
NsS'EDeltas'
p11
(lp12
sS'BCIndexShifts'
p13
NsS'WatchBCIndex'
p14
NsS'Deltas'
p15
(lp16
(lp17
I0
aI3
aa(lp18
I1
aI4
aa(lp19
I2
aI5
aasS'EDeltat'
p20
(lp21
sS'Ops'
p22
(lp23
(lp24
I-4
aI0
aa(lp25
I-2
aI3
aa(lp26
I-4
aI2
aa(lp27
I-3
aI1
aa(lp28
I-1
aI4
aa(lp29
I-2
aI5
aasS'EDSTensor'
p30
NsS'BCIndices'
p31
NsS'Tensors'
p32
(lp33
(iWick
TensorIndexer
p34
(dp35
S'suffix'
p36
S'_ph'
p37
sS'ops'
p38
(lp39
(lp40
I4
aI0
aa(lp41
I3
aI1
aasS'indices'
p42
(lp43
I1
aI0
asS'vac'
p44
S'_Vac'
p45
sS'Time'
p46
S''
p47
sS'indextypes'
p48
(lp49
I1
aI2
asS'name'
p50
S'r1'
p51
sba(iWick
TensorIndexer
p52
(dp53
g36
S'_hh'
p54
sg38
(lp55
(lp56
I4
aI2
aa(lp57
I2
aI3
aasg42
(lp58
I2
aI3
asg44
g47
sg46
g47
sg48
(lp59
I4
aI2
asg50
S'h'
p60
sba(iWick
TensorIndexer
p61
(dp62
g36
g37
sg38
(lp63
(lp64
I1
aI4
aa(lp65
I2
aI5
aasg42
(lp66
I4
aI5
asg44
g47
sg46
g47
sg48
(lp67
I1
aI2
asg50
g51
sbasS'OldTime'
p68
F0.0
sS'BosInf'
p69
NsS'EDeltai'
p70
(lp71
sS'IatT1'
p72
NsS'IatT0'
p73
NsS'TimeReversed'
p74
I00
sS'PreFactor'
p75
F-1.0
sba(iWick
OperatorString
p76
(dp77
g6
Nsg7
Nsg8
Nsg9
Nsg10
Nsg11
(lp78
sg13
Nsg14
Nsg15
(lp79
(lp80
I1
aI2
aa(lp81
I3
aI4
aa(lp82
I0
aI5
aasg20
(lp83
sg22
(lp84
(lp85
I-4
aI0
aa(lp86
I-3
aI1
aa(lp87
I-1
aI2
aa(lp88
I-3
aI3
aa(lp89
I-1
aI4
aa(lp90
I-2
aI5
aasg30
Nsg31
Nsg32
(lp91
(iWick
TensorIndexer
p92
(dp93
g36
g37
sg38
(lp94
(lp95
I4
aI0
aa(lp96
I3
aI1
aasg42
(lp97
I1
aI0
asg44
g45
sg46
g47
sg48
(lp98
I1
aI2
asg50
g51
sba(iWick
TensorIndexer
p99
(dp100
g36
S'_pp'
p101
sg38
(lp102
(lp103
I1
aI2
aa(lp104
I3
aI3
aasg42
(lp105
I2
aI3
asg44
g47
sg46
g47
sg48
(lp106
I1
aI3
asg50
g60
sba(iWick
TensorIndexer
p107
(dp108
g36
g37
sg38
(lp109
(lp110
I1
aI4
aa(lp111
I2
aI5
aasg42
(lp112
I4
aI5
asg44
g47
sg46
g47
sg48
(lp113
I1
aI2
asg50
g51
sbasg68
F0.0
sg69
Nsg70
(lp114
sg72
Nsg73
Nsg74
I00
sg75
F1.0
sba(iWick
OperatorString
p115
(dp116
g6
Nsg7
Nsg8
Nsg9
Nsg10
Nsg11
(lp117
sg13
Nsg14
Nsg15
(lp118
(lp119
I1
aI3
aa(lp120
I0
aI5
aa(lp121
I4
aI6
aa(lp122
I2
aI7
aasg20
(lp123
sg22
(lp124
(lp125
I-4
aI0
aa(lp126
I-2
aI5
aa(lp127
I-3
aI1
aa(lp128
I-1
aI3
aa(lp129
I-4
aI2
aa(lp130
I-3
aI4
aa(lp131
I-1
aI6
aa(lp132
I-2
aI7
aasg30
Nsg31
Nsg32
(lp133
(iWick
TensorIndexer
p134
(dp135
g36
g37
sg38
(lp136
(lp137
I4
aI0
aa(lp138
I3
aI1
aasg42
(lp139
I1
aI0
asg44
g45
sg46
g47
sg48
(lp140
I1
aI2
asg50
g51
sba(iWick
TensorIndexer
p141
(dp142
g36
S'_hphp'
p143
sg38
(lp144
(lp145
I4
aI2
aa(lp146
I1
aI3
aa(lp147
I3
aI4
aa(lp148
I2
aI5
aasg42
(lp149
I2
aI3
aI5
aI4
asg44
g47
sg46
g47
sg48
(lp150
I4
aI1
aI2
aI3
asg50
S'v'
p151
sba(iWick
TensorIndexer
p152
(dp153
g36
g37
sg38
(lp154
(lp155
I1
aI6
aa(lp156
I2
aI7
aasg42
(lp157
I6
aI7
asg44
g47
sg46
g47
sg48
(lp158
I1
aI2
asg50
g51
sbasg68
F0.0
sg69
Nsg70
(lp159
sg72
Nsg73
Nsg74
I00
sg75
F-1.0
sba(iWick
OperatorString
p160
(dp161
g6
Nsg7
Nsg8
Nsg9
Nsg10
Nsg15
(lp162
(lp163
I0
aI3
aa(lp164
I1
aI4
aa(lp165
I2
aI5
aasg74
I00
sg14
Nsg11
(lp166
sg20
(lp167
sg22
(lp168
(lp169
I-4
aI0
aa(lp170
I-2
aI3
aa(lp171
I-4
aI2
aa(lp172
I-3
aI1
aa(lp173
I-1
aI4
aa(lp174
I-2
aI5
aasg30
Nsg31
Nsg75
F1.0
sg68
F0.0
sg69
Nsg70
(lp175
sg72
Nsg73
Nsg32
(lp176
(iWick
TensorIndexer
p177
(dp178
g36
S'_hp'
p179
sg38
(lp180
(lp181
I4
aI0
aa(lp182
I3
aI1
aasg42
(lp183
I0
aI1
asg44
g47
sg46
g47
sg48
(lp184
I4
aI3
asg50
g51
sba(iWick
TensorIndexer
p185
(dp186
g36
g54
sg38
(lp187
(lp188
I4
aI2
aa(lp189
I2
aI3
aasg42
(lp190
I2
aI3
asg44
g47
sg46
g47
sg48
(lp191
I4
aI2
asg50
g60
sba(iWick
TensorIndexer
p192
(dp193
g36
g179
sg38
(lp194
(lp195
I1
aI4
aa(lp196
I2
aI5
aasg42
(lp197
I5
aI4
asg44
g45
sg46
g47
sg48
(lp198
I4
aI3
asg50
g51
sbasg13
Nsba(iWick
OperatorString
p199
(dp200
g6
Nsg7
Nsg8
Nsg9
Nsg10
Nsg11
(lp201
sg13
Nsg14
Nsg15
(lp202
(lp203
I1
aI2
aa(lp204
I3
aI4
aa(lp205
I0
aI5
aasg20
(lp206
sg22
(lp207
(lp208
I-4
aI0
aa(lp209
I-3
aI1
aa(lp210
I-1
aI2
aa(lp211
I-3
aI3
aa(lp212
I-1
aI4
aa(lp213
I-2
aI5
aasg30
Nsg31
Nsg32
(lp214
(iWick
TensorIndexer
p215
(dp216
g36
g179
sg38
(lp217
(lp218
I4
aI0
aa(lp219
I3
aI1
aasg42
(lp220
I0
aI1
asg44
g47
sg46
g47
sg48
(lp221
I4
aI3
asg50
g51
sba(iWick
TensorIndexer
p222
(dp223
g36
g101
sg38
(lp224
(lp225
I1
aI2
aa(lp226
I3
aI3
aasg42
(lp227
I2
aI3
asg44
g47
sg46
g47
sg48
(lp228
I1
aI3
asg50
g60
sba(iWick
TensorIndexer
p229
(dp230
g36
g179
sg38
(lp231
(lp232
I1
aI4
aa(lp233
I2
aI5
aasg42
(lp234
I5
aI4
asg44
g45
sg46
g47
sg48
(lp235
I4
aI3
asg50
g51
sbasg68
F0.0
sg69
Nsg70
(lp236
sg72
Nsg73
Nsg74
I00
sg75
F-1.0
sba(iWick
OperatorString
p237
(dp238
g6
Nsg7
Nsg8
Nsg9
Nsg10
Nsg15
(lp239
(lp240
I1
aI3
aa(lp241
I0
aI5
aa(lp242
I4
aI6
aa(lp243
I2
aI7
aasg74
I00
sg14
Nsg11
(lp244
sg20
(lp245
sg22
(lp246
(lp247
I-4
aI0
aa(lp248
I-2
aI5
aa(lp249
I-3
aI1
aa(lp250
I-1
aI3
aa(lp251
I-4
aI2
aa(lp252
I-3
aI4
aa(lp253
I-1
aI6
aa(lp254
I-2
aI7
aasg30
Nsg31
Nsg75
F1.0
sg68
F0.0
sg69
Nsg70
(lp255
sg72
Nsg73
Nsg32
(lp256
(iWick
TensorIndexer
p257
(dp258
g36
g179
sg38
(lp259
(lp260
I4
aI0
aa(lp261
I3
aI1
aasg42
(lp262
I0
aI1
asg44
g47
sg46
g47
sg48
(lp263
I4
aI3
asg50
g51
sba(iWick
TensorIndexer
p264
(dp265
g36
S'_hphp'
p266
sg38
(lp267
(lp268
I4
aI2
aa(lp269
I1
aI3
aa(lp270
I3
aI4
aa(lp271
I2
aI5
aasg42
(lp272
I2
aI3
aI5
aI4
asg44
g47
sg46
g47
sg48
(lp273
I4
aI1
aI2
aI3
asg50
g151
sba(iWick
TensorIndexer
p274
(dp275
g36
g179
sg38
(lp276
(lp277
I1
aI6
aa(lp278
I2
aI7
aasg42
(lp279
I7
aI6
asg44
g45
sg46
g47
sg48
(lp280
I4
aI3
asg50
g51
sbasg13
Nsbatp281
Rp282
(dp283
S'InhomogeneousTerms'
p284
I00
sb.