ccopy_reg
_reconstructor
p0
(cWick
ManyOpStrings
p1
c__builtin__
list
p2
(lp3
(iWick
OperatorString
p4
(dp5
S'EDITensor'
p6
NsS'UniqueBCIndices'
p7
NsS'EDTTensor'
p8
NsS'IatT2'
p9
NsS'CurrentIntegral'
p10
NsS'EDeltas'
p11
(lp12
sS'BCIndexShifts'
p13
NsS'WatchBCIndex'
p14
NsS'Deltas'
p15
(lp16
(lp17
I2
aI5
aa(lp18
I1
aI4
aa(lp19
I0
aI3
aasS'EDeltat'
p20
(lp21
sS'Ops'
p22
(lp23
(lp24
I-4
aI0
aa(lp25
I-3
aI1
aa(lp26
I-1
aI4
aa(lp27
I-2
aI3
aa(lp28
I-4
aI2
aa(lp29
I-2
aI5
aasS'EDSTensor'
p30
NsS'BCIndices'
p31
NsS'Tensors'
p32
(lp33
(iWick
TensorIndexer
p34
(dp35
S'suffix'
p36
S'_ph'
p37
sS'ops'
p38
(lp39
(lp40
I4
aI0
aa(lp41
I3
aI1
aasS'indices'
p42
(lp43
I1
aI0
asS'vac'
p44
S'_Vac'
p45
sS'Time'
p46
S''
p47
sS'indextypes'
p48
(lp49
I1
aI2
asS'name'
p50
S'r1'
p51
sba(iWick
TensorIndexer
p52
(dp53
g36
S'_hh'
p54
sg38
(lp55
(lp56
I4
aI2
aa(lp57
I2
aI3
aasg42
(lp58
I2
aI3
asg44
g47
sg46
g47
sg48
(lp59
I4
aI2
asg50
S'mux'
p60
sba(iWick
TensorIndexer
p61
(dp62
g36
g37
sg38
(lp63
(lp64
I1
aI4
aa(lp65
I2
aI5
aasg42
(lp66
I4
aI5
asg44
g47
sg46
g47
sg48
(lp67
I1
aI2
asg50
g51
sbasS'OldTime'
p68
F0.0
sS'BosInf'
p69
NsS'EDeltai'
p70
(lp71
sS'IatT1'
p72
NsS'IatT0'
p73
NsS'TimeReversed'
p74
I00
sS'PreFactor'
p75
F-1.0
sba(iWick
OperatorString
p76
(dp77
g6
Nsg7
Nsg8
Nsg9
Nsg10
Nsg11
(lp78
sg13
Nsg14
Nsg15
(lp79
(lp80
I3
aI4
aa(lp81
I1
aI2
aa(lp82
I0
aI5
aasg20
(lp83
sg22
(lp84
(lp85
I-4
aI0
aa(lp86
I-3
aI1
aa(lp87
I-1
aI2
aa(lp88
I-3
aI3
aa(lp89
I-1
aI4
aa(lp90
I-2
aI5
aasg30
Nsg31
Nsg32
(lp91
(iWick
TensorIndexer
p92
(dp93
g36
g37
sg38
(lp94
(lp95
I4
aI0
aa(lp96
I3
aI1
aasg42
(lp97
I1
aI0
asg44
g45
sg46
g47
sg48
(lp98
I1
aI2
asg50
g51
sba(iWick
TensorIndexer
p99
(dp100
g36
S'_pp'
p101
sg38
(lp102
(lp103
I1
aI2
aa(lp104
I3
aI3
aasg42
(lp105
I2
aI3
asg44
g47
sg46
g47
sg48
(lp106
I1
aI3
asg50
g60
sba(iWick
TensorIndexer
p107
(dp108
g36
g37
sg38
(lp109
(lp110
I1
aI4
aa(lp111
I2
aI5
aasg42
(lp112
I4
aI5
asg44
g47
sg46
g47
sg48
(lp113
I1
aI2
asg50
g51
sbasg68
F0.0
sg69
Nsg70
(lp114
sg72
Nsg73
Nsg74
I00
sg75
F1.0
sba(iWick
OperatorString
p115
(dp116
g6
Nsg7
Nsg8
Nsg9
Nsg10
Nsg11
(lp117
sg13
Nsg14
Nsg15
(lp118
(lp119
I2
aI5
aa(lp120
I1
aI4
aa(lp121
I0
aI3
aasg20
(lp122
sg22
(lp123
(lp124
I-4
aI0
aa(lp125
I-3
aI1
aa(lp126
I-1
aI4
aa(lp127
I-2
aI3
aa(lp128
I-4
aI2
aa(lp129
I-2
aI5
aasg30
Nsg31
Nsg32
(lp130
(iWick
TensorIndexer
p131
(dp132
g36
g37
sg38
(lp133
(lp134
I4
aI0
aa(lp135
I3
aI1
aasg42
(lp136
I1
aI0
asg44
g45
sg46
g47
sg48
(lp137
I1
aI2
asg50
g51
sba(iWick
TensorIndexer
p138
(dp139
g36
S'_hh'
p140
sg38
(lp141
(lp142
I4
aI2
aa(lp143
I2
aI3
aasg42
(lp144
I2
aI3
asg44
g47
sg46
g47
sg48
(lp145
I4
aI2
asg50
S'muy'
p146
sba(iWick
TensorIndexer
p147
(dp148
g36
g37
sg38
(lp149
(lp150
I1
aI4
aa(lp151
I2
aI5
aasg42
(lp152
I4
aI5
asg44
g47
sg46
g47
sg48
(lp153
I1
aI2
asg50
g51
sbasg68
F0.0
sg69
Nsg70
(lp154
sg72
Nsg73
Nsg74
I00
sg75
F-1.0
sba(iWick
OperatorString
p155
(dp156
g6
Nsg7
Nsg8
Nsg9
Nsg10
Nsg11
(lp157
sg13
Nsg14
Nsg15
(lp158
(lp159
I3
aI4
aa(lp160
I1
aI2
aa(lp161
I0
aI5
aasg20
(lp162
sg22
(lp163
(lp164
I-4
aI0
aa(lp165
I-3
aI1
aa(lp166
I-1
aI2
aa(lp167
I-3
aI3
aa(lp168
I-1
aI4
aa(lp169
I-2
aI5
aasg30
Nsg31
Nsg32
(lp170
(iWick
TensorIndexer
p171
(dp172
g36
g37
sg38
(lp173
(lp174
I4
aI0
aa(lp175
I3
aI1
aasg42
(lp176
I1
aI0
asg44
g45
sg46
g47
sg48
(lp177
I1
aI2
asg50
g51
sba(iWick
TensorIndexer
p178
(dp179
g36
S'_pp'
p180
sg38
(lp181
(lp182
I1
aI2
aa(lp183
I3
aI3
aasg42
(lp184
I2
aI3
asg44
g47
sg46
g47
sg48
(lp185
I1
aI3
asg50
g146
sba(iWick
TensorIndexer
p186
(dp187
g36
g37
sg38
(lp188
(lp189
I1
aI4
aa(lp190
I2
aI5
aasg42
(lp191
I4
aI5
asg44
g47
sg46
g47
sg48
(lp192
I1
aI2
asg50
g51
sbasg68
F0.0
sg69
Nsg70
(lp193
sg72
Nsg73
Nsg74
I00
sg75
F1.0
sba(iWick
OperatorString
p194
(dp195
g6
Nsg7
Nsg8
Nsg9
Nsg10
Nsg11
(lp196
sg13
Nsg14
Nsg15
(lp197
(lp198
I2
aI5
aa(lp199
I1
aI4
aa(lp200
I0
aI3
aasg20
(lp201
sg22
(lp202
(lp203
I-4
aI0
aa(lp204
I-3
aI1
aa(lp205
I-1
aI4
aa(lp206
I-2
aI3
aa(lp207
I-4
aI2
aa(lp208
I-2
aI5
aasg30
Nsg31
Nsg32
(lp209
(iWick
TensorIndexer
p210
(dp211
g36
g37
sg38
(lp212
(lp213
I4
aI0
aa(lp214
I3
aI1
aasg42
(lp215
I1
aI0
asg44
g45
sg46
g47
sg48
(lp216
I1
aI2
asg50
g51
sba(iWick
TensorIndexer
p217
(dp218
g36
S'_hh'
p219
sg38
(lp220
(lp221
I4
aI2
aa(lp222
I2
aI3
aasg42
(lp223
I2
aI3
asg44
g47
sg46
g47
sg48
(lp224
I4
aI2
asg50
S'muz'
p225
sba(iWick
TensorIndexer
p226
(dp227
g36
g37
sg38
(lp228
(lp229
I1
aI4
aa(lp230
I2
aI5
aasg42
(lp231
I4
aI5
asg44
g47
sg46
g47
sg48
(lp232
I1
aI2
asg50
g51
sbasg68
F0.0
sg69
Nsg70
(lp233
sg72
Nsg73
Nsg74
I00
sg75
F-1.0
sba(iWick
OperatorString
p234
(dp235
g6
Nsg7
Nsg8
Nsg9
Nsg10
Nsg11
(lp236
sg13
Nsg14
Nsg15
(lp237
(lp238
I3
aI4
aa(lp239
I1
aI2
aa(lp240
I0
aI5
aasg20
(lp241
sg22
(lp242
(lp243
I-4
aI0
aa(lp244
I-3
aI1
aa(lp245
I-1
aI2
aa(lp246
I-3
aI3
aa(lp247
I-1
aI4
aa(lp248
I-2
aI5
aasg30
Nsg31
Nsg32
(lp249
(iWick
TensorIndexer
p250
(dp251
g36
g37
sg38
(lp252
(lp253
I4
aI0
aa(lp254
I3
aI1
aasg42
(lp255
I1
aI0
asg44
g45
sg46
g47
sg48
(lp256
I1
aI2
asg50
g51
sba(iWick
TensorIndexer
p257
(dp258
g36
S'_pp'
p259
sg38
(lp260
(lp261
I1
aI2
aa(lp262
I3
aI3
aasg42
(lp263
I2
aI3
asg44
g47
sg46
g47
sg48
(lp264
I1
aI3
asg50
g225
sba(iWick
TensorIndexer
p265
(dp266
g36
g37
sg38
(lp267
(lp268
I1
aI4
aa(lp269
I2
aI5
aasg42
(lp270
I4
aI5
asg44
g47
sg46
g47
sg48
(lp271
I1
aI2
asg50
g51
sbasg68
F0.0
sg69
Nsg70
(lp272
sg72
Nsg73
Nsg74
I00
sg75
F1.0
sbatp273
Rp274
(dp275
S'InhomogeneousTerms'
p276
I00
sb.