ccopy_reg
_reconstructor
p0
(cWick
ManyOpStrings
p1
c__builtin__
list
p2
(lp3
(iWick
OperatorString
p4
(dp5
S'EDITensor'
p6
NsS'UniqueBCIndices'
p7
NsS'EDTTensor'
p8
NsS'IatT2'
p9
NsS'CurrentIntegral'
p10
NsS'Deltas'
p11
(lp12
(lp13
I0
aI3
aa(lp14
I4
aI7
aa(lp15
I1
aI6
aa(lp16
I2
aI5
aasS'TimeReversed'
p17
I00
sS'WatchBCIndex'
p18
NsS'EDeltas'
p19
(lp20
sS'EDeltat'
p21
(lp22
sS'Ops'
p23
(lp24
(lp25
I-4
aI0
aa(lp26
I-2
aI3
aa(lp27
I-4
aI2
aa(lp28
I-3
aI1
aa(lp29
I-1
aI6
aa(lp30
I-2
aI5
aa(lp31
I-4
aI4
aa(lp32
I-2
aI7
aasS'EDSTensor'
p33
NsS'BCIndices'
p34
NsS'PreFactor'
p35
F1.0
sS'OldTime'
p36
F0.0
sS'BosInf'
p37
NsS'EDeltai'
p38
(lp39
sS'IatT1'
p40
NsS'IatT0'
p41
NsS'Tensors'
p42
(lp43
(iWick
TensorIndexer
p44
(dp45
S'suffix'
p46
S'_ph'
p47
sS'ops'
p48
(lp49
(lp50
I4
aI0
aa(lp51
I3
aI1
aasS'indices'
p52
(lp53
I1
aI0
asS'vac'
p54
S'_Vac'
p55
sS'Time'
p56
S''
p57
sS'indextypes'
p58
(lp59
I1
aI2
asS'name'
p60
S'r1'
p61
sba(iWick
TensorIndexer
p62
(dp63
g46
S'_hh'
p64
sg48
(lp65
(lp66
I4
aI2
aa(lp67
I2
aI3
aasg52
(lp68
I2
aI3
asg54
g57
sg56
S't'
p69
sg58
(lp70
I4
aI2
asg60
S'B'
p71
sba(iWick
TensorIndexer
p72
(dp73
g46
g64
sg48
(lp74
(lp75
I4
aI4
aa(lp76
I2
aI5
aasg52
(lp77
I4
aI5
asg54
g57
sg56
S's'
p78
sg58
(lp79
I4
aI2
asg60
g71
sba(iWick
TensorIndexer
p80
(dp81
g46
g47
sg48
(lp82
(lp83
I1
aI6
aa(lp84
I2
aI7
aasg52
(lp85
I6
aI7
asg54
g57
sg56
g57
sg58
(lp86
I1
aI2
asg60
g61
sbasS'BCIndexShifts'
p87
Nsba(iWick
OperatorString
p88
(dp89
g6
Nsg7
Nsg8
Nsg9
Nsg10
Nsg11
(lp90
(lp91
I0
aI3
aa(lp92
I5
aI6
aa(lp93
I1
aI4
aa(lp94
I2
aI7
aasg17
I00
sg18
Nsg19
(lp95
sg21
(lp96
sg23
(lp97
(lp98
I-4
aI0
aa(lp99
I-2
aI3
aa(lp100
I-4
aI2
aa(lp101
I-3
aI1
aa(lp102
I-1
aI4
aa(lp103
I-3
aI5
aa(lp104
I-1
aI6
aa(lp105
I-2
aI7
aasg33
Nsg34
Nsg35
F-1.0
sg36
F0.0
sg37
Nsg38
(lp106
sg40
Nsg41
Nsg42
(lp107
(iWick
TensorIndexer
p108
(dp109
g46
g47
sg48
(lp110
(lp111
I4
aI0
aa(lp112
I3
aI1
aasg52
(lp113
I1
aI0
asg54
g55
sg56
g57
sg58
(lp114
I1
aI2
asg60
g61
sba(iWick
TensorIndexer
p115
(dp116
g46
g64
sg48
(lp117
(lp118
I4
aI2
aa(lp119
I2
aI3
aasg52
(lp120
I2
aI3
asg54
g57
sg56
g69
sg58
(lp121
I4
aI2
asg60
g71
sba(iWick
TensorIndexer
p122
(dp123
g46
S'_pp'
p124
sg48
(lp125
(lp126
I1
aI4
aa(lp127
I3
aI5
aasg52
(lp128
I4
aI5
asg54
g57
sg56
g78
sg58
(lp129
I1
aI3
asg60
g71
sba(iWick
TensorIndexer
p130
(dp131
g46
g47
sg48
(lp132
(lp133
I1
aI6
aa(lp134
I2
aI7
aasg52
(lp135
I6
aI7
asg54
g57
sg56
g57
sg58
(lp136
I1
aI2
asg60
g61
sbasg87
Nsba(iWick
OperatorString
p137
(dp138
g6
Nsg7
Nsg8
Nsg9
Nsg10
Nsg11
(lp139
(lp140
I3
aI4
aa(lp141
I1
aI6
aa(lp142
I0
aI5
aa(lp143
I2
aI7
aasg17
I00
sg18
Nsg19
(lp144
sg21
(lp145
sg23
(lp146
(lp147
I-4
aI0
aa(lp148
I-2
aI5
aa(lp149
I-3
aI1
aa(lp150
I-3
aI3
aa(lp151
I-1
aI4
aa(lp152
I-1
aI6
aa(lp153
I-4
aI2
aa(lp154
I-2
aI7
aasg33
Nsg34
Nsg35
F-1.0
sg36
F0.0
sg37
Nsg38
(lp155
sg40
Nsg41
Nsg42
(lp156
(iWick
TensorIndexer
p157
(dp158
g46
g47
sg48
(lp159
(lp160
I4
aI0
aa(lp161
I3
aI1
aasg52
(lp162
I1
aI0
asg54
g55
sg56
g57
sg58
(lp163
I1
aI2
asg60
g61
sba(iWick
TensorIndexer
p164
(dp165
g46
S'_hp'
p166
sg48
(lp167
(lp168
I4
aI2
aa(lp169
I3
aI3
aasg52
(lp170
I2
aI3
asg54
g57
sg56
g69
sg58
(lp171
I4
aI3
asg60
g71
sba(iWick
TensorIndexer
p172
(dp173
g46
S'_ph'
p174
sg48
(lp175
(lp176
I1
aI4
aa(lp177
I2
aI5
aasg52
(lp178
I4
aI5
asg54
g57
sg56
g78
sg58
(lp179
I1
aI2
asg60
g71
sba(iWick
TensorIndexer
p180
(dp181
g46
g47
sg48
(lp182
(lp183
I1
aI6
aa(lp184
I2
aI7
aasg52
(lp185
I6
aI7
asg54
g57
sg56
g57
sg58
(lp186
I1
aI2
asg60
g61
sbasg87
Nsba(iWick
OperatorString
p187
(dp188
g6
Nsg7
Nsg8
Nsg9
Nsg10
Nsg11
(lp189
(lp190
I1
aI4
aa(lp191
I3
aI6
aa(lp192
I2
aI5
aa(lp193
I0
aI7
aasg17
I00
sg18
Nsg19
(lp194
sg21
(lp195
sg23
(lp196
(lp197
I-4
aI0
aa(lp198
I-4
aI2
aa(lp199
I-3
aI1
aa(lp200
I-1
aI4
aa(lp201
I-3
aI3
aa(lp202
I-1
aI6
aa(lp203
I-2
aI5
aa(lp204
I-2
aI7
aasg33
Nsg34
Nsg35
F-1.0
sg36
F0.0
sg37
Nsg38
(lp205
sg40
Nsg41
Nsg42
(lp206
(iWick
TensorIndexer
p207
(dp208
g46
g47
sg48
(lp209
(lp210
I4
aI0
aa(lp211
I3
aI1
aasg52
(lp212
I1
aI0
asg54
g55
sg56
g57
sg58
(lp213
I1
aI2
asg60
g61
sba(iWick
TensorIndexer
p214
(dp215
g46
g166
sg48
(lp216
(lp217
I4
aI2
aa(lp218
I3
aI3
aasg52
(lp219
I2
aI3
asg54
g57
sg56
g69
sg58
(lp220
I4
aI3
asg60
g71
sba(iWick
TensorIndexer
p221
(dp222
g46
g174
sg48
(lp223
(lp224
I1
aI4
aa(lp225
I2
aI5
aasg52
(lp226
I4
aI5
asg54
g57
sg56
g78
sg58
(lp227
I1
aI2
asg60
g71
sba(iWick
TensorIndexer
p228
(dp229
g46
g47
sg48
(lp230
(lp231
I1
aI6
aa(lp232
I2
aI7
aasg52
(lp233
I6
aI7
asg54
g57
sg56
g57
sg58
(lp234
I1
aI2
asg60
g61
sbasg87
Nsba(iWick
OperatorString
p235
(dp236
g6
Nsg7
Nsg8
Nsg9
Nsg10
Nsg11
(lp237
(lp238
I1
aI2
aa(lp239
I4
aI7
aa(lp240
I3
aI6
aa(lp241
I0
aI5
aasg17
I00
sg18
Nsg19
(lp242
sg21
(lp243
sg23
(lp244
(lp245
I-4
aI0
aa(lp246
I-3
aI1
aa(lp247
I-1
aI2
aa(lp248
I-3
aI3
aa(lp249
I-1
aI6
aa(lp250
I-2
aI5
aa(lp251
I-4
aI4
aa(lp252
I-2
aI7
aasg33
Nsg34
Nsg35
F-1.0
sg36
F0.0
sg37
Nsg38
(lp253
sg40
Nsg41
Nsg42
(lp254
(iWick
TensorIndexer
p255
(dp256
g46
g47
sg48
(lp257
(lp258
I4
aI0
aa(lp259
I3
aI1
aasg52
(lp260
I1
aI0
asg54
g55
sg56
g57
sg58
(lp261
I1
aI2
asg60
g61
sba(iWick
TensorIndexer
p262
(dp263
g46
g124
sg48
(lp264
(lp265
I1
aI2
aa(lp266
I3
aI3
aasg52
(lp267
I2
aI3
asg54
g57
sg56
g69
sg58
(lp268
I1
aI3
asg60
g71
sba(iWick
TensorIndexer
p269
(dp270
g46
g64
sg48
(lp271
(lp272
I4
aI4
aa(lp273
I2
aI5
aasg52
(lp274
I4
aI5
asg54
g57
sg56
g78
sg58
(lp275
I4
aI2
asg60
g71
sba(iWick
TensorIndexer
p276
(dp277
g46
g47
sg48
(lp278
(lp279
I1
aI6
aa(lp280
I2
aI7
aasg52
(lp281
I6
aI7
asg54
g57
sg56
g57
sg58
(lp282
I1
aI2
asg60
g61
sbasg87
Nsba(iWick
OperatorString
p283
(dp284
g6
Nsg7
Nsg8
Nsg9
Nsg10
Nsg11
(lp285
(lp286
I1
aI2
aa(lp287
I5
aI6
aa(lp288
I3
aI4
aa(lp289
I0
aI7
aasg17
I00
sg18
Nsg19
(lp290
sg21
(lp291
sg23
(lp292
(lp293
I-4
aI0
aa(lp294
I-3
aI1
aa(lp295
I-1
aI2
aa(lp296
I-3
aI3
aa(lp297
I-1
aI4
aa(lp298
I-3
aI5
aa(lp299
I-1
aI6
aa(lp300
I-2
aI7
aasg33
Nsg34
Nsg35
F1.0
sg36
F0.0
sg37
Nsg38
(lp301
sg40
Nsg41
Nsg42
(lp302
(iWick
TensorIndexer
p303
(dp304
g46
g47
sg48
(lp305
(lp306
I4
aI0
aa(lp307
I3
aI1
aasg52
(lp308
I1
aI0
asg54
g55
sg56
g57
sg58
(lp309
I1
aI2
asg60
g61
sba(iWick
TensorIndexer
p310
(dp311
g46
g124
sg48
(lp312
(lp313
I1
aI2
aa(lp314
I3
aI3
aasg52
(lp315
I2
aI3
asg54
g57
sg56
g69
sg58
(lp316
I1
aI3
asg60
g71
sba(iWick
TensorIndexer
p317
(dp318
g46
g124
sg48
(lp319
(lp320
I1
aI4
aa(lp321
I3
aI5
aasg52
(lp322
I4
aI5
asg54
g57
sg56
g78
sg58
(lp323
I1
aI3
asg60
g71
sba(iWick
TensorIndexer
p324
(dp325
g46
g47
sg48
(lp326
(lp327
I1
aI6
aa(lp328
I2
aI7
aasg52
(lp329
I6
aI7
asg54
g57
sg56
g57
sg58
(lp330
I1
aI2
asg60
g61
sbasg87
Nsbatp331
Rp332
(dp333
S'InhomogeneousTerms'
p334
I00
sb.