ccopy_reg
_reconstructor
p0
(cWick
ManyOpStrings
p1
c__builtin__
list
p2
(lp3
(iWick
OperatorString
p4
(dp5
S'EDITensor'
p6
NsS'UniqueBCIndices'
p7
NsS'EDTTensor'
p8
NsS'IatT2'
p9
NsS'CurrentIntegral'
p10
NsS'Deltas'
p11
(lp12
(lp13
I5
aI6
aa(lp14
I4
aI8
aa(lp15
I1
aI9
aa(lp16
I3
aI7
aa(lp17
I2
aI10
aa(lp18
I0
aI11
aasS'TimeReversed'
p19
I00
sS'WatchBCIndex'
p20
NsS'EDeltas'
p21
(lp22
sS'EDeltat'
p23
(lp24
sS'Ops'
p25
(lp26
(lp27
I-4
aI0
aa(lp28
I-4
aI2
aa(lp29
I-4
aI3
aa(lp30
I-3
aI1
aa(lp31
I-3
aI4
aa(lp32
I-3
aI5
aa(lp33
I-1
aI6
aa(lp34
I-1
aI8
aa(lp35
I-1
aI9
aa(lp36
I-2
aI7
aa(lp37
I-2
aI10
aa(lp38
I-2
aI11
aasS'EDSTensor'
p39
NsS'BCIndices'
p40
NsS'PreFactor'
p41
F1.0
sS'OldTime'
p42
F0.0
sS'BosInf'
p43
NsS'EDeltai'
p44
(lp45
sS'IatT1'
p46
NsS'IatT0'
p47
NsS'Tensors'
p48
(lp49
(iWick
TensorIndexer
p50
(dp51
S'suffix'
p52
S'_ph'
p53
sS'ops'
p54
(lp55
(lp56
I4
aI0
aa(lp57
I3
aI1
aasS'indices'
p58
(lp59
I1
aI0
asS'vac'
p60
S'_Vac'
p61
sS'Time'
p62
S''
p63
sS'indextypes'
p64
(lp65
I1
aI2
asS'name'
p66
S'r1'
p67
sba(iWick
TensorIndexer
p68
(dp69
g52
S'_hhpp'
p70
sg54
(lp71
(lp72
I4
aI2
aa(lp73
I4
aI3
aa(lp74
I3
aI4
aa(lp75
I3
aI5
aasg58
(lp76
I2
aI3
aI5
aI4
asg60
g63
sg62
S't'
p77
sg64
(lp78
I4
aI4
aI3
aI3
asg66
S'v'
p79
sba(iWick
TensorIndexer
p80
(dp81
g52
g53
sg54
(lp82
(lp83
I1
aI6
aa(lp84
I2
aI7
aasg58
(lp85
I6
aI7
asg60
g63
sg62
g63
sg64
(lp86
I1
aI2
asg66
g67
sba(iWick
TensorIndexer
p87
(dp88
g52
S'_pphh'
p89
sg54
(lp90
(lp91
I1
aI8
aa(lp92
I1
aI9
aa(lp93
I2
aI10
aa(lp94
I2
aI11
aasg58
(lp95
I8
aI9
aI11
aI10
asg60
g63
sg62
S's'
p96
sg64
(lp97
I1
aI1
aI2
aI2
asg66
g79
sbasS'BCIndexShifts'
p98
Nsba(iWick
OperatorString
p99
(dp100
g6
Nsg7
Nsg8
Nsg9
Nsg10
Nsg11
(lp101
(lp102
I5
aI6
aa(lp103
I4
aI8
aa(lp104
I1
aI9
aa(lp105
I0
aI7
aa(lp106
I3
aI10
aa(lp107
I2
aI11
aasg19
I00
sg20
Nsg21
(lp108
sg23
(lp109
sg25
(lp110
(lp111
I-4
aI0
aa(lp112
I-2
aI7
aa(lp113
I-4
aI2
aa(lp114
I-3
aI1
aa(lp115
I-3
aI4
aa(lp116
I-3
aI5
aa(lp117
I-1
aI6
aa(lp118
I-1
aI8
aa(lp119
I-1
aI9
aa(lp120
I-4
aI3
aa(lp121
I-2
aI10
aa(lp122
I-2
aI11
aasg39
Nsg40
Nsg41
F0.5
sg42
F0.0
sg43
Nsg44
(lp123
sg46
Nsg47
Nsg48
(lp124
(iWick
TensorIndexer
p125
(dp126
g52
g53
sg54
(lp127
(lp128
I4
aI0
aa(lp129
I3
aI1
aasg58
(lp130
I1
aI0
asg60
g61
sg62
g63
sg64
(lp131
I1
aI2
asg66
g67
sba(iWick
TensorIndexer
p132
(dp133
g52
g70
sg54
(lp134
(lp135
I4
aI2
aa(lp136
I4
aI3
aa(lp137
I3
aI4
aa(lp138
I3
aI5
aasg58
(lp139
I2
aI3
aI5
aI4
asg60
g63
sg62
g77
sg64
(lp140
I4
aI4
aI3
aI3
asg66
g79
sba(iWick
TensorIndexer
p141
(dp142
g52
g53
sg54
(lp143
(lp144
I1
aI6
aa(lp145
I2
aI7
aasg58
(lp146
I6
aI7
asg60
g63
sg62
g63
sg64
(lp147
I1
aI2
asg66
g67
sba(iWick
TensorIndexer
p148
(dp149
g52
g89
sg54
(lp150
(lp151
I1
aI8
aa(lp152
I1
aI9
aa(lp153
I2
aI10
aa(lp154
I2
aI11
aasg58
(lp155
I8
aI9
aI11
aI10
asg60
g63
sg62
g96
sg64
(lp156
I1
aI1
aI2
aI2
asg66
g79
sbasg98
Nsba(iWick
OperatorString
p157
(dp158
g6
Nsg7
Nsg8
Nsg9
Nsg10
Nsg11
(lp159
(lp160
I1
aI6
aa(lp161
I5
aI8
aa(lp162
I4
aI9
aa(lp163
I3
aI7
aa(lp164
I2
aI10
aa(lp165
I0
aI11
aasg19
I00
sg20
Nsg21
(lp166
sg23
(lp167
sg25
(lp168
(lp169
I-4
aI0
aa(lp170
I-4
aI2
aa(lp171
I-4
aI3
aa(lp172
I-3
aI1
aa(lp173
I-1
aI6
aa(lp174
I-3
aI4
aa(lp175
I-3
aI5
aa(lp176
I-1
aI8
aa(lp177
I-1
aI9
aa(lp178
I-2
aI7
aa(lp179
I-2
aI10
aa(lp180
I-2
aI11
aasg39
Nsg40
Nsg41
F0.5
sg42
F0.0
sg43
Nsg44
(lp181
sg46
Nsg47
Nsg48
(lp182
(iWick
TensorIndexer
p183
(dp184
g52
g53
sg54
(lp185
(lp186
I4
aI0
aa(lp187
I3
aI1
aasg58
(lp188
I1
aI0
asg60
g61
sg62
g63
sg64
(lp189
I1
aI2
asg66
g67
sba(iWick
TensorIndexer
p190
(dp191
g52
g70
sg54
(lp192
(lp193
I4
aI2
aa(lp194
I4
aI3
aa(lp195
I3
aI4
aa(lp196
I3
aI5
aasg58
(lp197
I2
aI3
aI5
aI4
asg60
g63
sg62
g77
sg64
(lp198
I4
aI4
aI3
aI3
asg66
g79
sba(iWick
TensorIndexer
p199
(dp200
g52
g53
sg54
(lp201
(lp202
I1
aI6
aa(lp203
I2
aI7
aasg58
(lp204
I6
aI7
asg60
g63
sg62
g63
sg64
(lp205
I1
aI2
asg66
g67
sba(iWick
TensorIndexer
p206
(dp207
g52
g89
sg54
(lp208
(lp209
I1
aI8
aa(lp210
I1
aI9
aa(lp211
I2
aI10
aa(lp212
I2
aI11
aasg58
(lp213
I8
aI9
aI11
aI10
asg60
g63
sg62
g96
sg64
(lp214
I1
aI1
aI2
aI2
asg66
g79
sbasg98
Nsbatp215
Rp216
(dp217
S'InhomogeneousTerms'
p218
I00
sb.