ccopy_reg
_reconstructor
p0
(cWick
ManyOpStrings
p1
c__builtin__
list
p2
(lp3
(iWick
OperatorString
p4
(dp5
S'EDITensor'
p6
NsS'UniqueBCIndices'
p7
NsS'EDTTensor'
p8
NsS'IatT2'
p9
NsS'CurrentIntegral'
p10
NsS'Deltas'
p11
(lp12
(lp13
I0
aI5
aa(lp14
I6
aI11
aa(lp15
I4
aI7
aa(lp16
I1
aI10
aa(lp17
I3
aI8
aa(lp18
I2
aI9
aasS'TimeReversed'
p19
I00
sS'WatchBCIndex'
p20
NsS'EDeltas'
p21
(lp22
sS'EDeltat'
p23
(lp24
sS'Ops'
p25
(lp26
(lp27
I-4
aI0
aa(lp28
I-2
aI5
aa(lp29
I-4
aI2
aa(lp30
I-4
aI3
aa(lp31
I-3
aI1
aa(lp32
I-3
aI4
aa(lp33
I-1
aI7
aa(lp34
I-1
aI10
aa(lp35
I-2
aI8
aa(lp36
I-2
aI9
aa(lp37
I-4
aI6
aa(lp38
I-2
aI11
aasS'EDSTensor'
p39
NsS'BCIndices'
p40
NsS'PreFactor'
p41
F0.5
sS'OldTime'
p42
F0.0
sS'BosInf'
p43
NsS'EDeltai'
p44
(lp45
sS'IatT1'
p46
NsS'IatT0'
p47
NsS'Tensors'
p48
(lp49
(iWick
TensorIndexer
p50
(dp51
S'suffix'
p52
S'_ph'
p53
sS'ops'
p54
(lp55
(lp56
I4
aI0
aa(lp57
I3
aI1
aasS'indices'
p58
(lp59
I1
aI0
asS'vac'
p60
S'_Vac'
p61
sS'Time'
p62
S''
p63
sS'indextypes'
p64
(lp65
I1
aI2
asS'name'
p66
S'r1'
p67
sba(iWick
TensorIndexer
p68
(dp69
g52
S'_hhhp'
p70
sg54
(lp71
(lp72
I4
aI2
aa(lp73
I4
aI3
aa(lp74
I3
aI4
aa(lp75
I2
aI5
aasg58
(lp76
I2
aI3
aI5
aI4
asg60
g63
sg62
S't'
p77
sg64
(lp78
I4
aI4
aI2
aI3
asg66
S'v'
p79
sba(iWick
TensorIndexer
p80
(dp81
g52
S'_hphh'
p82
sg54
(lp83
(lp84
I4
aI6
aa(lp85
I1
aI7
aa(lp86
I2
aI8
aa(lp87
I2
aI9
aasg58
(lp88
I6
aI7
aI9
aI8
asg60
g63
sg62
S's'
p89
sg64
(lp90
I4
aI1
aI2
aI2
asg66
g79
sba(iWick
TensorIndexer
p91
(dp92
g52
g53
sg54
(lp93
(lp94
I1
aI10
aa(lp95
I2
aI11
aasg58
(lp96
I10
aI11
asg60
g63
sg62
g63
sg64
(lp97
I1
aI2
asg66
g67
sbasS'BCIndexShifts'
p98
Nsba(iWick
OperatorString
p99
(dp100
g6
Nsg7
Nsg8
Nsg9
Nsg10
Nsg11
(lp101
(lp102
I0
aI5
aa(lp103
I6
aI11
aa(lp104
I1
aI7
aa(lp105
I4
aI10
aa(lp106
I3
aI8
aa(lp107
I2
aI9
aasg19
I00
sg20
Nsg21
(lp108
sg23
(lp109
sg25
(lp110
(lp111
I-4
aI0
aa(lp112
I-2
aI5
aa(lp113
I-4
aI2
aa(lp114
I-4
aI3
aa(lp115
I-3
aI1
aa(lp116
I-1
aI7
aa(lp117
I-3
aI4
aa(lp118
I-1
aI10
aa(lp119
I-2
aI8
aa(lp120
I-2
aI9
aa(lp121
I-4
aI6
aa(lp122
I-2
aI11
aasg39
Nsg40
Nsg41
F-0.5
sg42
F0.0
sg43
Nsg44
(lp123
sg46
Nsg47
Nsg48
(lp124
(iWick
TensorIndexer
p125
(dp126
g52
g53
sg54
(lp127
(lp128
I4
aI0
aa(lp129
I3
aI1
aasg58
(lp130
I1
aI0
asg60
g61
sg62
g63
sg64
(lp131
I1
aI2
asg66
g67
sba(iWick
TensorIndexer
p132
(dp133
g52
g70
sg54
(lp134
(lp135
I4
aI2
aa(lp136
I4
aI3
aa(lp137
I3
aI4
aa(lp138
I2
aI5
aasg58
(lp139
I2
aI3
aI5
aI4
asg60
g63
sg62
g77
sg64
(lp140
I4
aI4
aI2
aI3
asg66
g79
sba(iWick
TensorIndexer
p141
(dp142
g52
g82
sg54
(lp143
(lp144
I4
aI6
aa(lp145
I1
aI7
aa(lp146
I2
aI8
aa(lp147
I2
aI9
aasg58
(lp148
I6
aI7
aI9
aI8
asg60
g63
sg62
g89
sg64
(lp149
I4
aI1
aI2
aI2
asg66
g79
sba(iWick
TensorIndexer
p150
(dp151
g52
g53
sg54
(lp152
(lp153
I1
aI10
aa(lp154
I2
aI11
aasg58
(lp155
I10
aI11
asg60
g63
sg62
g63
sg64
(lp156
I1
aI2
asg66
g67
sbasg98
Nsba(iWick
OperatorString
p157
(dp158
g6
Nsg7
Nsg8
Nsg9
Nsg10
Nsg11
(lp159
(lp160
I0
aI5
aa(lp161
I8
aI10
aa(lp162
I4
aI6
aa(lp163
I1
aI7
aa(lp164
I3
aI9
aa(lp165
I2
aI11
aasg19
I00
sg20
Nsg21
(lp166
sg23
(lp167
sg25
(lp168
(lp169
I-4
aI0
aa(lp170
I-2
aI5
aa(lp171
I-4
aI2
aa(lp172
I-4
aI3
aa(lp173
I-3
aI1
aa(lp174
I-3
aI4
aa(lp175
I-1
aI6
aa(lp176
I-1
aI7
aa(lp177
I-2
aI9
aa(lp178
I-3
aI8
aa(lp179
I-1
aI10
aa(lp180
I-2
aI11
aasg39
Nsg40
Nsg41
F-1.0
sg42
F0.0
sg43
Nsg44
(lp181
sg46
Nsg47
Nsg48
(lp182
(iWick
TensorIndexer
p183
(dp184
g52
g53
sg54
(lp185
(lp186
I4
aI0
aa(lp187
I3
aI1
aasg58
(lp188
I1
aI0
asg60
g61
sg62
g63
sg64
(lp189
I1
aI2
asg66
g67
sba(iWick
TensorIndexer
p190
(dp191
g52
g70
sg54
(lp192
(lp193
I4
aI2
aa(lp194
I4
aI3
aa(lp195
I3
aI4
aa(lp196
I2
aI5
aasg58
(lp197
I2
aI3
aI5
aI4
asg60
g63
sg62
g77
sg64
(lp198
I4
aI4
aI2
aI3
asg66
g79
sba(iWick
TensorIndexer
p199
(dp200
g52
S'_pphp'
p201
sg54
(lp202
(lp203
I1
aI6
aa(lp204
I1
aI7
aa(lp205
I3
aI8
aa(lp206
I2
aI9
aasg58
(lp207
I6
aI7
aI9
aI8
asg60
g63
sg62
g89
sg64
(lp208
I1
aI1
aI2
aI3
asg66
g79
sba(iWick
TensorIndexer
p209
(dp210
g52
g53
sg54
(lp211
(lp212
I1
aI10
aa(lp213
I2
aI11
aasg58
(lp214
I10
aI11
asg60
g63
sg62
g63
sg64
(lp215
I1
aI2
asg66
g67
sbasg98
Nsba(iWick
OperatorString
p216
(dp217
g6
Nsg7
Nsg8
Nsg9
Nsg10
Nsg11
(lp218
(lp219
I5
aI6
aa(lp220
I4
aI7
aa(lp221
I1
aI10
aa(lp222
I3
aI8
aa(lp223
I0
aI9
aa(lp224
I2
aI11
aasg19
I00
sg20
Nsg21
(lp225
sg23
(lp226
sg25
(lp227
(lp228
I-4
aI0
aa(lp229
I-2
aI9
aa(lp230
I-4
aI3
aa(lp231
I-3
aI1
aa(lp232
I-3
aI4
aa(lp233
I-3
aI5
aa(lp234
I-1
aI6
aa(lp235
I-1
aI7
aa(lp236
I-1
aI10
aa(lp237
I-2
aI8
aa(lp238
I-4
aI2
aa(lp239
I-2
aI11
aasg39
Nsg40
Nsg41
F-0.5
sg42
F0.0
sg43
Nsg44
(lp240
sg46
Nsg47
Nsg48
(lp241
(iWick
TensorIndexer
p242
(dp243
g52
g53
sg54
(lp244
(lp245
I4
aI0
aa(lp246
I3
aI1
aasg58
(lp247
I1
aI0
asg60
g61
sg62
g63
sg64
(lp248
I1
aI2
asg66
g67
sba(iWick
TensorIndexer
p249
(dp250
g52
S'_hhpp'
p251
sg54
(lp252
(lp253
I4
aI2
aa(lp254
I4
aI3
aa(lp255
I3
aI4
aa(lp256
I3
aI5
aasg58
(lp257
I2
aI3
aI5
aI4
asg60
g63
sg62
g77
sg64
(lp258
I4
aI4
aI3
aI3
asg66
g79
sba(iWick
TensorIndexer
p259
(dp260
g52
S'_pphh'
p261
sg54
(lp262
(lp263
I1
aI6
aa(lp264
I1
aI7
aa(lp265
I2
aI8
aa(lp266
I2
aI9
aasg58
(lp267
I6
aI7
aI9
aI8
asg60
g63
sg62
g89
sg64
(lp268
I1
aI1
aI2
aI2
asg66
g79
sba(iWick
TensorIndexer
p269
(dp270
g52
g53
sg54
(lp271
(lp272
I1
aI10
aa(lp273
I2
aI11
aasg58
(lp274
I10
aI11
asg60
g63
sg62
g63
sg64
(lp275
I1
aI2
asg66
g67
sbasg98
Nsba(iWick
OperatorString
p276
(dp277
g6
Nsg7
Nsg8
Nsg9
Nsg10
Nsg11
(lp278
(lp279
I5
aI6
aa(lp280
I1
aI7
aa(lp281
I4
aI10
aa(lp282
I3
aI8
aa(lp283
I2
aI9
aa(lp284
I0
aI11
aasg19
I00
sg20
Nsg21
(lp285
sg23
(lp286
sg25
(lp287
(lp288
I-4
aI0
aa(lp289
I-4
aI2
aa(lp290
I-4
aI3
aa(lp291
I-3
aI1
aa(lp292
I-1
aI7
aa(lp293
I-3
aI5
aa(lp294
I-1
aI6
aa(lp295
I-3
aI4
aa(lp296
I-1
aI10
aa(lp297
I-2
aI8
aa(lp298
I-2
aI9
aa(lp299
I-2
aI11
aasg39
Nsg40
Nsg41
F-0.5
sg42
F0.0
sg43
Nsg44
(lp300
sg46
Nsg47
Nsg48
(lp301
(iWick
TensorIndexer
p302
(dp303
g52
g53
sg54
(lp304
(lp305
I4
aI0
aa(lp306
I3
aI1
aasg58
(lp307
I1
aI0
asg60
g61
sg62
g63
sg64
(lp308
I1
aI2
asg66
g67
sba(iWick
TensorIndexer
p309
(dp310
g52
g251
sg54
(lp311
(lp312
I4
aI2
aa(lp313
I4
aI3
aa(lp314
I3
aI4
aa(lp315
I3
aI5
aasg58
(lp316
I2
aI3
aI5
aI4
asg60
g63
sg62
g77
sg64
(lp317
I4
aI4
aI3
aI3
asg66
g79
sba(iWick
TensorIndexer
p318
(dp319
g52
g261
sg54
(lp320
(lp321
I1
aI6
aa(lp322
I1
aI7
aa(lp323
I2
aI8
aa(lp324
I2
aI9
aasg58
(lp325
I6
aI7
aI9
aI8
asg60
g63
sg62
g89
sg64
(lp326
I1
aI1
aI2
aI2
asg66
g79
sba(iWick
TensorIndexer
p327
(dp328
g52
g53
sg54
(lp329
(lp330
I1
aI10
aa(lp331
I2
aI11
aasg58
(lp332
I10
aI11
asg60
g63
sg62
g63
sg64
(lp333
I1
aI2
asg66
g67
sbasg98
Nsba(iWick
OperatorString
p334
(dp335
g6
Nsg7
Nsg8
Nsg9
Nsg10
Nsg11
(lp336
(lp337
I5
aI6
aa(lp338
I1
aI7
aa(lp339
I4
aI10
aa(lp340
I3
aI8
aa(lp341
I0
aI9
aa(lp342
I2
aI11
aasg19
I00
sg20
Nsg21
(lp343
sg23
(lp344
sg25
(lp345
(lp346
I-4
aI0
aa(lp347
I-2
aI9
aa(lp348
I-4
aI3
aa(lp349
I-3
aI1
aa(lp350
I-1
aI7
aa(lp351
I-3
aI5
aa(lp352
I-1
aI6
aa(lp353
I-3
aI4
aa(lp354
I-1
aI10
aa(lp355
I-2
aI8
aa(lp356
I-4
aI2
aa(lp357
I-2
aI11
aasg39
Nsg40
Nsg41
F1.0
sg42
F0.0
sg43
Nsg44
(lp358
sg46
Nsg47
Nsg48
(lp359
(iWick
TensorIndexer
p360
(dp361
g52
g53
sg54
(lp362
(lp363
I4
aI0
aa(lp364
I3
aI1
aasg58
(lp365
I1
aI0
asg60
g61
sg62
g63
sg64
(lp366
I1
aI2
asg66
g67
sba(iWick
TensorIndexer
p367
(dp368
g52
g251
sg54
(lp369
(lp370
I4
aI2
aa(lp371
I4
aI3
aa(lp372
I3
aI4
aa(lp373
I3
aI5
aasg58
(lp374
I2
aI3
aI5
aI4
asg60
g63
sg62
g77
sg64
(lp375
I4
aI4
aI3
aI3
asg66
g79
sba(iWick
TensorIndexer
p376
(dp377
g52
g261
sg54
(lp378
(lp379
I1
aI6
aa(lp380
I1
aI7
aa(lp381
I2
aI8
aa(lp382
I2
aI9
aasg58
(lp383
I6
aI7
aI9
aI8
asg60
g63
sg62
g89
sg64
(lp384
I1
aI1
aI2
aI2
asg66
g79
sba(iWick
TensorIndexer
p385
(dp386
g52
g53
sg54
(lp387
(lp388
I1
aI10
aa(lp389
I2
aI11
aasg58
(lp390
I10
aI11
asg60
g63
sg62
g63
sg64
(lp391
I1
aI2
asg66
g67
sbasg98
Nsba(iWick
OperatorString
p392
(dp393
g6
Nsg7
Nsg8
Nsg9
Nsg10
Nsg11
(lp394
(lp395
I1
aI3
aa(lp396
I0
aI5
aa(lp397
I8
aI10
aa(lp398
I6
aI11
aa(lp399
I4
aI7
aa(lp400
I2
aI9
aasg19
I00
sg20
Nsg21
(lp401
sg23
(lp402
sg25
(lp403
(lp404
I-4
aI0
aa(lp405
I-2
aI5
aa(lp406
I-3
aI1
aa(lp407
I-1
aI3
aa(lp408
I-4
aI2
aa(lp409
I-3
aI4
aa(lp410
I-1
aI7
aa(lp411
I-2
aI9
aa(lp412
I-4
aI6
aa(lp413
I-3
aI8
aa(lp414
I-1
aI10
aa(lp415
I-2
aI11
aasg39
Nsg40
Nsg41
F1.0
sg42
F0.0
sg43
Nsg44
(lp416
sg46
Nsg47
Nsg48
(lp417
(iWick
TensorIndexer
p418
(dp419
g52
g53
sg54
(lp420
(lp421
I4
aI0
aa(lp422
I3
aI1
aasg58
(lp423
I1
aI0
asg60
g61
sg62
g63
sg64
(lp424
I1
aI2
asg66
g67
sba(iWick
TensorIndexer
p425
(dp426
g52
S'_hphp'
p427
sg54
(lp428
(lp429
I4
aI2
aa(lp430
I1
aI3
aa(lp431
I3
aI4
aa(lp432
I2
aI5
aasg58
(lp433
I2
aI3
aI5
aI4
asg60
g63
sg62
g77
sg64
(lp434
I4
aI1
aI2
aI3
asg66
g79
sba(iWick
TensorIndexer
p435
(dp436
g52
S'_hphp'
p437
sg54
(lp438
(lp439
I4
aI6
aa(lp440
I1
aI7
aa(lp441
I3
aI8
aa(lp442
I2
aI9
aasg58
(lp443
I6
aI7
aI9
aI8
asg60
g63
sg62
g89
sg64
(lp444
I4
aI1
aI2
aI3
asg66
g79
sba(iWick
TensorIndexer
p445
(dp446
g52
g53
sg54
(lp447
(lp448
I1
aI10
aa(lp449
I2
aI11
aasg58
(lp450
I10
aI11
asg60
g63
sg62
g63
sg64
(lp451
I1
aI2
asg66
g67
sbasg98
Nsba(iWick
OperatorString
p452
(dp453
g6
Nsg7
Nsg8
Nsg9
Nsg10
Nsg11
(lp454
(lp455
I1
aI3
aa(lp456
I6
aI11
aa(lp457
I5
aI7
aa(lp458
I4
aI10
aa(lp459
I2
aI8
aa(lp460
I0
aI9
aasg19
I00
sg20
Nsg21
(lp461
sg23
(lp462
sg25
(lp463
(lp464
I-4
aI0
aa(lp465
I-4
aI2
aa(lp466
I-3
aI1
aa(lp467
I-1
aI3
aa(lp468
I-3
aI4
aa(lp469
I-3
aI5
aa(lp470
I-1
aI7
aa(lp471
I-1
aI10
aa(lp472
I-2
aI8
aa(lp473
I-2
aI9
aa(lp474
I-4
aI6
aa(lp475
I-2
aI11
aasg39
Nsg40
Nsg41
F-1.0
sg42
F0.0
sg43
Nsg44
(lp476
sg46
Nsg47
Nsg48
(lp477
(iWick
TensorIndexer
p478
(dp479
g52
g53
sg54
(lp480
(lp481
I4
aI0
aa(lp482
I3
aI1
aasg58
(lp483
I1
aI0
asg60
g61
sg62
g63
sg64
(lp484
I1
aI2
asg66
g67
sba(iWick
TensorIndexer
p485
(dp486
g52
S'_hppp'
p487
sg54
(lp488
(lp489
I4
aI2
aa(lp490
I1
aI3
aa(lp491
I3
aI4
aa(lp492
I3
aI5
aasg58
(lp493
I2
aI3
aI5
aI4
asg60
g63
sg62
g77
sg64
(lp494
I4
aI1
aI3
aI3
asg66
g79
sba(iWick
TensorIndexer
p495
(dp496
g52
g82
sg54
(lp497
(lp498
I4
aI6
aa(lp499
I1
aI7
aa(lp500
I2
aI8
aa(lp501
I2
aI9
aasg58
(lp502
I6
aI7
aI9
aI8
asg60
g63
sg62
g89
sg64
(lp503
I4
aI1
aI2
aI2
asg66
g79
sba(iWick
TensorIndexer
p504
(dp505
g52
g53
sg54
(lp506
(lp507
I1
aI10
aa(lp508
I2
aI11
aasg58
(lp509
I10
aI11
asg60
g63
sg62
g63
sg64
(lp510
I1
aI2
asg66
g67
sbasg98
Nsba(iWick
OperatorString
p511
(dp512
g6
Nsg7
Nsg8
Nsg9
Nsg10
Nsg11
(lp513
(lp514
I1
aI3
aa(lp515
I8
aI10
aa(lp516
I5
aI6
aa(lp517
I4
aI7
aa(lp518
I2
aI9
aa(lp519
I0
aI11
aasg19
I00
sg20
Nsg21
(lp520
sg23
(lp521
sg25
(lp522
(lp523
I-4
aI0
aa(lp524
I-4
aI2
aa(lp525
I-3
aI1
aa(lp526
I-1
aI3
aa(lp527
I-3
aI4
aa(lp528
I-3
aI5
aa(lp529
I-1
aI6
aa(lp530
I-1
aI7
aa(lp531
I-2
aI9
aa(lp532
I-3
aI8
aa(lp533
I-1
aI10
aa(lp534
I-2
aI11
aasg39
Nsg40
Nsg41
F0.5
sg42
F0.0
sg43
Nsg44
(lp535
sg46
Nsg47
Nsg48
(lp536
(iWick
TensorIndexer
p537
(dp538
g52
g53
sg54
(lp539
(lp540
I4
aI0
aa(lp541
I3
aI1
aasg58
(lp542
I1
aI0
asg60
g61
sg62
g63
sg64
(lp543
I1
aI2
asg66
g67
sba(iWick
TensorIndexer
p544
(dp545
g52
g487
sg54
(lp546
(lp547
I4
aI2
aa(lp548
I1
aI3
aa(lp549
I3
aI4
aa(lp550
I3
aI5
aasg58
(lp551
I2
aI3
aI5
aI4
asg60
g63
sg62
g77
sg64
(lp552
I4
aI1
aI3
aI3
asg66
g79
sba(iWick
TensorIndexer
p553
(dp554
g52
g201
sg54
(lp555
(lp556
I1
aI6
aa(lp557
I1
aI7
aa(lp558
I3
aI8
aa(lp559
I2
aI9
aasg58
(lp560
I6
aI7
aI9
aI8
asg60
g63
sg62
g89
sg64
(lp561
I1
aI1
aI2
aI3
asg66
g79
sba(iWick
TensorIndexer
p562
(dp563
g52
g53
sg54
(lp564
(lp565
I1
aI10
aa(lp566
I2
aI11
aasg58
(lp567
I10
aI11
asg60
g63
sg62
g63
sg64
(lp568
I1
aI2
asg66
g67
sbasg98
Nsba(iWick
OperatorString
p569
(dp570
g6
Nsg7
Nsg8
Nsg9
Nsg10
Nsg11
(lp571
(lp572
I1
aI3
aa(lp573
I8
aI10
aa(lp574
I5
aI6
aa(lp575
I4
aI7
aa(lp576
I0
aI9
aa(lp577
I2
aI11
aasg19
I00
sg20
Nsg21
(lp578
sg23
(lp579
sg25
(lp580
(lp581
I-4
aI0
aa(lp582
I-2
aI9
aa(lp583
I-3
aI1
aa(lp584
I-1
aI3
aa(lp585
I-3
aI4
aa(lp586
I-3
aI5
aa(lp587
I-1
aI6
aa(lp588
I-1
aI7
aa(lp589
I-4
aI2
aa(lp590
I-3
aI8
aa(lp591
I-1
aI10
aa(lp592
I-2
aI11
aasg39
Nsg40
Nsg41
F-0.5
sg42
F0.0
sg43
Nsg44
(lp593
sg46
Nsg47
Nsg48
(lp594
(iWick
TensorIndexer
p595
(dp596
g52
g53
sg54
(lp597
(lp598
I4
aI0
aa(lp599
I3
aI1
aasg58
(lp600
I1
aI0
asg60
g61
sg62
g63
sg64
(lp601
I1
aI2
asg66
g67
sba(iWick
TensorIndexer
p602
(dp603
g52
g487
sg54
(lp604
(lp605
I4
aI2
aa(lp606
I1
aI3
aa(lp607
I3
aI4
aa(lp608
I3
aI5
aasg58
(lp609
I2
aI3
aI5
aI4
asg60
g63
sg62
g77
sg64
(lp610
I4
aI1
aI3
aI3
asg66
g79
sba(iWick
TensorIndexer
p611
(dp612
g52
g201
sg54
(lp613
(lp614
I1
aI6
aa(lp615
I1
aI7
aa(lp616
I3
aI8
aa(lp617
I2
aI9
aasg58
(lp618
I6
aI7
aI9
aI8
asg60
g63
sg62
g89
sg64
(lp619
I1
aI1
aI2
aI3
asg66
g79
sba(iWick
TensorIndexer
p620
(dp621
g52
g53
sg54
(lp622
(lp623
I1
aI10
aa(lp624
I2
aI11
aasg58
(lp625
I10
aI11
asg60
g63
sg62
g63
sg64
(lp626
I1
aI2
asg66
g67
sbasg98
Nsbatp627
Rp628
(dp629
S'InhomogeneousTerms'
p630
I00
sb.