ccopy_reg
_reconstructor
p0
(cWick
ManyOpStrings
p1
c__builtin__
list
p2
(lp3
(iWick
OperatorString
p4
(dp5
S'EDITensor'
p6
NsS'UniqueBCIndices'
p7
NsS'EDTTensor'
p8
NsS'IatT2'
p9
NsS'CurrentIntegral'
p10
NsS'Deltas'
p11
(lp12
(lp13
I0
aI3
aa(lp14
I4
aI7
aa(lp15
I1
aI6
aa(lp16
I2
aI5
aasS'TimeReversed'
p17
I00
sS'WatchBCIndex'
p18
NsS'EDeltas'
p19
(lp20
sS'EDeltat'
p21
(lp22
sS'Ops'
p23
(lp24
(lp25
I-4
aI0
aa(lp26
I-2
aI0
aa(lp27
I-4
aI2
aa(lp28
I-3
aI1
aa(lp29
I-1
aI1
aa(lp30
I-2
aI2
aa(lp31
I-4
aI4
aa(lp32
I-2
aI4
aasS'EDSTensor'
p33
NsS'BCIndices'
p34
NsS'PreFactor'
p35
F1.0
sS'OldTime'
p36
F0.0
sS'BosInf'
p37
NsS'EDeltai'
p38
(lp39
sS'IatT1'
p40
NsS'IatT0'
p41
NsS'Tensors'
p42
(lp43
(iWick
TensorIndexer
p44
(dp45
S'suffix'
p46
S'_ph'
p47
sS'ops'
p48
(lp49
(lp50
I4
aI0
aa(lp51
I3
aI1
aasS'indices'
p52
(lp53
I1
aI0
asS'vac'
p54
S'_Vac'
p55
sS'Time'
p56
S''
p57
sS'indextypes'
p58
(lp59
I1
aI2
asS'name'
p60
S'r1'
p61
sba(iWick
TensorIndexer
p62
(dp63
g46
S'_hh'
p64
sg48
(lp65
(lp66
I4
aI2
aa(lp67
I2
aI0
aasg52
(lp68
I2
aI0
asg54
g57
sg56
S't'
p69
sg58
(lp70
I4
aI2
asg60
S'B'
p71
sba(iWick
TensorIndexer
p72
(dp73
g46
g64
sg48
(lp74
(lp75
I4
aI4
aa(lp76
I2
aI2
aasg52
(lp77
I4
aI2
asg54
g57
sg56
S's'
p78
sg58
(lp79
I4
aI2
asg60
g71
sba(iWick
TensorIndexer
p80
(dp81
g46
g47
sg48
(lp82
(lp83
I1
aI1
aa(lp84
I2
aI4
aasg52
(lp85
I1
aI4
asg54
g57
sg56
g57
sg58
(lp86
I1
aI2
asg60
g61
sbasS'BCIndexShifts'
p87
Nsba(iWick
OperatorString
p88
(dp89
g6
Nsg7
Nsg8
Nsg9
Nsg10
Nsg11
(lp90
(lp91
I0
aI3
aa(lp92
I5
aI6
aa(lp93
I1
aI4
aa(lp94
I2
aI7
aasg17
I00
sg18
Nsg19
(lp95
sg21
(lp96
sg23
(lp97
(lp98
I-4
aI0
aa(lp99
I-2
aI0
aa(lp100
I-4
aI2
aa(lp101
I-3
aI1
aa(lp102
I-1
aI1
aa(lp103
I-3
aI5
aa(lp104
I-1
aI5
aa(lp105
I-2
aI2
aasg33
Nsg34
Nsg35
F-1.0
sg36
F0.0
sg37
Nsg38
(lp106
sg40
Nsg41
Nsg42
(lp107
(iWick
TensorIndexer
p108
(dp109
g46
g47
sg48
(lp110
(lp111
I4
aI0
aa(lp112
I3
aI1
aasg52
(lp113
I1
aI0
asg54
g55
sg56
g57
sg58
(lp114
I1
aI2
asg60
g61
sba(iWick
TensorIndexer
p115
(dp116
g46
g64
sg48
(lp117
(lp118
I4
aI2
aa(lp119
I2
aI0
aasg52
(lp120
I2
aI0
asg54
g57
sg56
g69
sg58
(lp121
I4
aI2
asg60
g71
sba(iWick
TensorIndexer
p122
(dp123
g46
S'_pp'
p124
sg48
(lp125
(lp126
I1
aI1
aa(lp127
I3
aI5
aasg52
(lp128
I1
aI5
asg54
g57
sg56
g78
sg58
(lp129
I1
aI3
asg60
g71
sba(iWick
TensorIndexer
p130
(dp131
g46
g47
sg48
(lp132
(lp133
I1
aI5
aa(lp134
I2
aI2
aasg52
(lp135
I5
aI2
asg54
g57
sg56
g57
sg58
(lp136
I1
aI2
asg60
g61
sbasg87
Nsba(iWick
OperatorString
p137
(dp138
g6
Nsg7
Nsg8
Nsg9
Nsg10
Nsg11
(lp139
(lp140
I3
aI4
aa(lp141
I1
aI6
aa(lp142
I0
aI5
aa(lp143
I2
aI7
aasg17
I00
sg18
Nsg19
(lp144
sg21
(lp145
sg23
(lp146
(lp147
I-4
aI0
aa(lp148
I-2
aI0
aa(lp149
I-3
aI1
aa(lp150
I-3
aI3
aa(lp151
I-1
aI3
aa(lp152
I-1
aI1
aa(lp153
I-4
aI2
aa(lp154
I-2
aI2
aasg33
Nsg34
Nsg35
F-1.0
sg36
F0.0
sg37
Nsg38
(lp155
sg40
Nsg41
Nsg42
(lp156
(iWick
TensorIndexer
p157
(dp158
g46
g47
sg48
(lp159
(lp160
I4
aI0
aa(lp161
I3
aI1
aasg52
(lp162
I1
aI0
asg54
g55
sg56
g57
sg58
(lp163
I1
aI2
asg60
g61
sba(iWick
TensorIndexer
p164
(dp165
g46
S'_hp'
p166
sg48
(lp167
(lp168
I4
aI2
aa(lp169
I3
aI3
aasg52
(lp170
I2
aI3
asg54
g57
sg56
g69
sg58
(lp171
I4
aI3
asg60
g71
sba(iWick
TensorIndexer
p172
(dp173
g46
S'_ph'
p174
sg48
(lp175
(lp176
I1
aI3
aa(lp177
I2
aI0
aasg52
(lp178
I3
aI0
asg54
g57
sg56
g78
sg58
(lp179
I1
aI2
asg60
g71
sba(iWick
TensorIndexer
p180
(dp181
g46
g47
sg48
(lp182
(lp183
I1
aI1
aa(lp184
I2
aI2
aasg52
(lp185
I1
aI2
asg54
g57
sg56
g57
sg58
(lp186
I1
aI2
asg60
g61
sbasg87
Nsba(iWick
OperatorString
p187
(dp188
g6
Nsg7
Nsg8
Nsg9
Nsg10
Nsg11
(lp189
(lp190
I1
aI4
aa(lp191
I3
aI6
aa(lp192
I2
aI5
aa(lp193
I0
aI7
aasg17
I00
sg18
Nsg19
(lp194
sg21
(lp195
sg23
(lp196
(lp197
I-4
aI0
aa(lp198
I-4
aI2
aa(lp199
I-3
aI1
aa(lp200
I-1
aI1
aa(lp201
I-3
aI3
aa(lp202
I-1
aI3
aa(lp203
I-2
aI2
aa(lp204
I-2
aI0
aasg33
Nsg34
Nsg35
F-1.0
sg36
F0.0
sg37
Nsg38
(lp205
sg40
Nsg41
Nsg42
(lp206
(iWick
TensorIndexer
p207
(dp208
g46
g47
sg48
(lp209
(lp210
I4
aI0
aa(lp211
I3
aI1
aasg52
(lp212
I1
aI0
asg54
g55
sg56
g57
sg58
(lp213
I1
aI2
asg60
g61
sba(iWick
TensorIndexer
p214
(dp215
g46
g166
sg48
(lp216
(lp217
I4
aI2
aa(lp218
I3
aI3
aasg52
(lp219
I2
aI3
asg54
g57
sg56
g69
sg58
(lp220
I4
aI3
asg60
g71
sba(iWick
TensorIndexer
p221
(dp222
g46
g174
sg48
(lp223
(lp224
I1
aI1
aa(lp225
I2
aI2
aasg52
(lp226
I1
aI2
asg54
g57
sg56
g78
sg58
(lp227
I1
aI2
asg60
g71
sba(iWick
TensorIndexer
p228
(dp229
g46
g47
sg48
(lp230
(lp231
I1
aI3
aa(lp232
I2
aI0
aasg52
(lp233
I3
aI0
asg54
g57
sg56
g57
sg58
(lp234
I1
aI2
asg60
g61
sbasg87
Nsba(iWick
OperatorString
p235
(dp236
g6
Nsg7
Nsg8
Nsg9
Nsg10
Nsg11
(lp237
(lp238
I1
aI2
aa(lp239
I4
aI7
aa(lp240
I3
aI6
aa(lp241
I0
aI5
aasg17
I00
sg18
Nsg19
(lp242
sg21
(lp243
sg23
(lp244
(lp245
I-4
aI0
aa(lp246
I-3
aI1
aa(lp247
I-1
aI1
aa(lp248
I-3
aI3
aa(lp249
I-1
aI3
aa(lp250
I-2
aI0
aa(lp251
I-4
aI4
aa(lp252
I-2
aI4
aasg33
Nsg34
Nsg35
F-1.0
sg36
F0.0
sg37
Nsg38
(lp253
sg40
Nsg41
Nsg42
(lp254
(iWick
TensorIndexer
p255
(dp256
g46
g47
sg48
(lp257
(lp258
I4
aI0
aa(lp259
I3
aI1
aasg52
(lp260
I1
aI0
asg54
g55
sg56
g57
sg58
(lp261
I1
aI2
asg60
g61
sba(iWick
TensorIndexer
p262
(dp263
g46
g124
sg48
(lp264
(lp265
I1
aI1
aa(lp266
I3
aI3
aasg52
(lp267
I1
aI3
asg54
g57
sg56
g69
sg58
(lp268
I1
aI3
asg60
g71
sba(iWick
TensorIndexer
p269
(dp270
g46
g64
sg48
(lp271
(lp272
I4
aI4
aa(lp273
I2
aI0
aasg52
(lp274
I4
aI0
asg54
g57
sg56
g78
sg58
(lp275
I4
aI2
asg60
g71
sba(iWick
TensorIndexer
p276
(dp277
g46
g47
sg48
(lp278
(lp279
I1
aI3
aa(lp280
I2
aI4
aasg52
(lp281
I3
aI4
asg54
g57
sg56
g57
sg58
(lp282
I1
aI2
asg60
g61
sbasg87
Nsba(iWick
OperatorString
p283
(dp284
g6
Nsg7
Nsg8
Nsg9
Nsg10
Nsg11
(lp285
(lp286
I1
aI2
aa(lp287
I5
aI6
aa(lp288
I3
aI4
aa(lp289
I0
aI7
aasg17
I00
sg18
Nsg19
(lp290
sg21
(lp291
sg23
(lp292
(lp293
I-4
aI0
aa(lp294
I-3
aI1
aa(lp295
I-1
aI1
aa(lp296
I-3
aI3
aa(lp297
I-1
aI3
aa(lp298
I-3
aI5
aa(lp299
I-1
aI5
aa(lp300
I-2
aI0
aasg33
Nsg34
Nsg35
F1.0
sg36
F0.0
sg37
Nsg38
(lp301
sg40
Nsg41
Nsg42
(lp302
(iWick
TensorIndexer
p303
(dp304
g46
g47
sg48
(lp305
(lp306
I4
aI0
aa(lp307
I3
aI1
aasg52
(lp308
I1
aI0
asg54
g55
sg56
g57
sg58
(lp309
I1
aI2
asg60
g61
sba(iWick
TensorIndexer
p310
(dp311
g46
g124
sg48
(lp312
(lp313
I1
aI1
aa(lp314
I3
aI3
aasg52
(lp315
I1
aI3
asg54
g57
sg56
g69
sg58
(lp316
I1
aI3
asg60
g71
sba(iWick
TensorIndexer
p317
(dp318
g46
g124
sg48
(lp319
(lp320
I1
aI3
aa(lp321
I3
aI5
aasg52
(lp322
I3
aI5
asg54
g57
sg56
g78
sg58
(lp323
I1
aI3
asg60
g71
sba(iWick
TensorIndexer
p324
(dp325
g46
g47
sg48
(lp326
(lp327
I1
aI5
aa(lp328
I2
aI0
aasg52
(lp329
I5
aI0
asg54
g57
sg56
g57
sg58
(lp330
I1
aI2
asg60
g61
sbasg87
Nsba(iWick
OperatorString
p331
(dp332
g6
Nsg7
Nsg8
Nsg9
Nsg10
Nsg11
(lp333
(lp334
I3
aI4
aa(lp335
I1
aI6
aa(lp336
I0
aI5
aa(lp337
I2
aI7
aasg17
I00
sg18
Nsg19
(lp338
sg21
(lp339
sg23
(lp340
(lp341
I-4
aI0
aa(lp342
I-2
aI0
aa(lp343
I-3
aI1
aa(lp344
I-3
aI3
aa(lp345
I-1
aI3
aa(lp346
I-1
aI1
aa(lp347
I-4
aI2
aa(lp348
I-2
aI2
aasg33
Nsg34
Nsg35
F1.0
sg36
F0.0
sg37
Nsg38
(lp349
sg40
Nsg41
Nsg42
(lp350
(iWick
TensorIndexer
p351
(dp352
g46
g47
sg48
(lp353
(lp354
I4
aI0
aa(lp355
I3
aI1
aasg52
(lp356
I1
aI0
asg54
g55
sg56
g57
sg58
(lp357
I1
aI2
asg60
g61
sba(iWick
TensorIndexer
p358
(dp359
g46
g166
sg48
(lp360
(lp361
I4
aI2
aa(lp362
I3
aI3
aasg52
(lp363
I2
aI3
asg54
g57
sg56
g69
sg58
(lp364
I4
aI3
asg60
g71
sba(iWick
TensorIndexer
p365
(dp366
g46
g47
sg48
(lp367
(lp368
I1
aI3
aa(lp369
I2
aI0
aasg52
(lp370
I3
aI0
asg54
g57
sg56
g57
sg58
(lp371
I1
aI2
asg60
g61
sba(iWick
TensorIndexer
p372
(dp373
g46
g174
sg48
(lp374
(lp375
I1
aI1
aa(lp376
I2
aI2
aasg52
(lp377
I1
aI2
asg54
g57
sg56
g78
sg58
(lp378
I1
aI2
asg60
g71
sbasg87
Nsba(iWick
OperatorString
p379
(dp380
g6
Nsg7
Nsg8
Nsg9
Nsg10
Nsg11
(lp381
(lp382
I1
aI4
aa(lp383
I3
aI6
aa(lp384
I2
aI5
aa(lp385
I0
aI7
aasg17
I00
sg18
Nsg19
(lp386
sg21
(lp387
sg23
(lp388
(lp389
I-4
aI0
aa(lp390
I-4
aI2
aa(lp391
I-3
aI1
aa(lp392
I-1
aI1
aa(lp393
I-3
aI3
aa(lp394
I-1
aI3
aa(lp395
I-2
aI2
aa(lp396
I-2
aI0
aasg33
Nsg34
Nsg35
F1.0
sg36
F0.0
sg37
Nsg38
(lp397
sg40
Nsg41
Nsg42
(lp398
(iWick
TensorIndexer
p399
(dp400
g46
g47
sg48
(lp401
(lp402
I4
aI0
aa(lp403
I3
aI1
aasg52
(lp404
I1
aI0
asg54
g55
sg56
g57
sg58
(lp405
I1
aI2
asg60
g61
sba(iWick
TensorIndexer
p406
(dp407
g46
g166
sg48
(lp408
(lp409
I4
aI2
aa(lp410
I3
aI3
aasg52
(lp411
I2
aI3
asg54
g57
sg56
g69
sg58
(lp412
I4
aI3
asg60
g71
sba(iWick
TensorIndexer
p413
(dp414
g46
g47
sg48
(lp415
(lp416
I1
aI1
aa(lp417
I2
aI2
aasg52
(lp418
I1
aI2
asg54
g57
sg56
g57
sg58
(lp419
I1
aI2
asg60
g61
sba(iWick
TensorIndexer
p420
(dp421
g46
g174
sg48
(lp422
(lp423
I1
aI3
aa(lp424
I2
aI0
aasg52
(lp425
I3
aI0
asg54
g57
sg56
g78
sg58
(lp426
I1
aI2
asg60
g71
sbasg87
Nsba(iWick
OperatorString
p427
(dp428
g6
Nsg7
Nsg8
Nsg9
Nsg10
Nsg19
(lp429
sg87
Nsg18
Nsg11
(lp430
(lp431
I3
aI4
aa(lp432
I1
aI6
aa(lp433
I0
aI5
aa(lp434
I2
aI7
aasg21
(lp435
sg23
(lp436
(lp437
I-4
aI0
aa(lp438
I-2
aI0
aa(lp439
I-3
aI1
aa(lp440
I-3
aI3
aa(lp441
I-1
aI3
aa(lp442
I-1
aI1
aa(lp443
I-4
aI2
aa(lp444
I-2
aI2
aasg33
Nsg34
Nsg42
(lp445
(iWick
TensorIndexer
p446
(dp447
g46
g47
sg48
(lp448
(lp449
I4
aI0
aa(lp450
I3
aI1
aasg52
(lp451
I1
aI0
asg54
g55
sg56
g57
sg58
(lp452
I1
aI2
asg60
g61
sba(iWick
TensorIndexer
p453
(dp454
g46
g166
sg48
(lp455
(lp456
I4
aI2
aa(lp457
I3
aI3
aasg52
(lp458
I2
aI3
asg54
g57
sg56
g69
sg58
(lp459
I4
aI3
asg60
g71
sba(iWick
TensorIndexer
p460
(dp461
g46
g47
sg48
(lp462
(lp463
I1
aI3
aa(lp464
I2
aI0
aasg52
(lp465
I3
aI0
asg54
g57
sg56
g57
sg58
(lp466
I1
aI2
asg60
g61
sba(iWick
TensorIndexer
p467
(dp468
g46
g174
sg48
(lp469
(lp470
I1
aI1
aa(lp471
I2
aI2
aasg52
(lp472
I1
aI2
asg54
g57
sg56
g78
sg58
(lp473
I1
aI2
asg60
g71
sbasg36
F0.0
sg37
Nsg38
(lp474
sg40
Nsg41
Nsg17
I00
sg35
F-1.0
sba(iWick
OperatorString
p475
(dp476
g6
Nsg7
Nsg8
Nsg9
Nsg10
Nsg19
(lp477
sg87
Nsg18
Nsg11
(lp478
(lp479
I1
aI4
aa(lp480
I3
aI6
aa(lp481
I2
aI5
aa(lp482
I0
aI7
aasg21
(lp483
sg23
(lp484
(lp485
I-4
aI0
aa(lp486
I-4
aI2
aa(lp487
I-3
aI1
aa(lp488
I-1
aI1
aa(lp489
I-3
aI3
aa(lp490
I-1
aI3
aa(lp491
I-2
aI2
aa(lp492
I-2
aI0
aasg33
Nsg34
Nsg42
(lp493
(iWick
TensorIndexer
p494
(dp495
g46
g47
sg48
(lp496
(lp497
I4
aI0
aa(lp498
I3
aI1
aasg52
(lp499
I1
aI0
asg54
g55
sg56
g57
sg58
(lp500
I1
aI2
asg60
g61
sba(iWick
TensorIndexer
p501
(dp502
g46
g166
sg48
(lp503
(lp504
I4
aI2
aa(lp505
I3
aI3
aasg52
(lp506
I2
aI3
asg54
g57
sg56
g69
sg58
(lp507
I4
aI3
asg60
g71
sba(iWick
TensorIndexer
p508
(dp509
g46
g47
sg48
(lp510
(lp511
I1
aI1
aa(lp512
I2
aI2
aasg52
(lp513
I1
aI2
asg54
g57
sg56
g57
sg58
(lp514
I1
aI2
asg60
g61
sba(iWick
TensorIndexer
p515
(dp516
g46
g174
sg48
(lp517
(lp518
I1
aI3
aa(lp519
I2
aI0
aasg52
(lp520
I3
aI0
asg54
g57
sg56
g78
sg58
(lp521
I1
aI2
asg60
g71
sbasg36
F0.0
sg37
Nsg38
(lp522
sg40
Nsg41
Nsg17
I00
sg35
F-1.0
sbatp523
Rp524
(dp525
S'InhomogeneousTerms'
p526
I00
sb.